; Listing generated by Microsoft (R) Optimizing Compiler Version 19.16.27032.1 

include listing.inc

INCLUDELIB LIBCMT
INCLUDELIB OLDNAMES

PUBLIC	win_rorl
; Function compile flags: /Odtp
_TEXT	SEGMENT
inp$ = 8
win_rorl	PROC
; File c:\pfay\tmp\tst.c
; Line 3
	mov	DWORD PTR [rsp+8], ecx
; Line 4
	mov	eax, DWORD PTR inp$[rsp]
	ror	eax, 2
	ror	eax, 2
	ror	eax, 2
	ror	eax, 2
	ror	eax, 2
	ror	eax, 2
	ror	eax, 2
	ror	eax, 2
	ror	eax, 2
	ror	eax, 2
	ror	eax, 2
	ror	eax, 2
	ror	eax, 2
	ror	eax, 2
	ror	eax, 2
	ror	eax, 2
	ror	eax, 2
	ror	eax, 2
	ror	eax, 2
	ror	eax, 2
	ror	eax, 2
	ror	eax, 2
	ror	eax, 2
	ror	eax, 2
	ror	eax, 2
	ror	eax, 2
	ror	eax, 2
	ror	eax, 2
	ror	eax, 2
	ror	eax, 2
	ror	eax, 2
	ror	eax, 2
	ror	eax, 2
	ror	eax, 2
	ror	eax, 2
	ror	eax, 2
	ror	eax, 2
	ror	eax, 2
	ror	eax, 2
	ror	eax, 2
	ror	eax, 2
	ror	eax, 2
	ror	eax, 2
	ror	eax, 2
	ror	eax, 2
	ror	eax, 2
	ror	eax, 2
	ror	eax, 2
	ror	eax, 2
	ror	eax, 2
	ror	eax, 2
	ror	eax, 2
	ror	eax, 2
	ror	eax, 2
	ror	eax, 2
	ror	eax, 2
	ror	eax, 2
	ror	eax, 2
	ror	eax, 2
	ror	eax, 2
	ror	eax, 2
	ror	eax, 2
	ror	eax, 2
	ror	eax, 2
	ror	eax, 2
	ror	eax, 2
	ror	eax, 2
	ror	eax, 2
	ror	eax, 2
	ror	eax, 2
	ror	eax, 2
	ror	eax, 2
	ror	eax, 2
	ror	eax, 2
	ror	eax, 2
	ror	eax, 2
	ror	eax, 2
	ror	eax, 2
	ror	eax, 2
	ror	eax, 2
	ror	eax, 2
	ror	eax, 2
	ror	eax, 2
	ror	eax, 2
	ror	eax, 2
	ror	eax, 2
	ror	eax, 2
	ror	eax, 2
	ror	eax, 2
	ror	eax, 2
	ror	eax, 2
	ror	eax, 2
	ror	eax, 2
	ror	eax, 2
	ror	eax, 2
	ror	eax, 2
	ror	eax, 2
	ror	eax, 2
	ror	eax, 2
	ror	eax, 2
	ror	eax, 2
	ror	eax, 2
	ror	eax, 2
	ror	eax, 2
	ror	eax, 2
	ror	eax, 2
	ror	eax, 2
	ror	eax, 2
	ror	eax, 2
	ror	eax, 2
	ror	eax, 2
	ror	eax, 2
	ror	eax, 2
	ror	eax, 2
	ror	eax, 2
	ror	eax, 2
	ror	eax, 2
	ror	eax, 2
	ror	eax, 2
	ror	eax, 2
	ror	eax, 2
	ror	eax, 2
	ror	eax, 2
	ror	eax, 2
	ror	eax, 2
	ror	eax, 2
	ror	eax, 2
	ror	eax, 2
	ror	eax, 2
	ror	eax, 2
	ror	eax, 2
	ror	eax, 2
	ror	eax, 2
	ror	eax, 2
	ror	eax, 2
	ror	eax, 2
	ror	eax, 2
	ror	eax, 2
	ror	eax, 2
	ror	eax, 2
	ror	eax, 2
	ror	eax, 2
	ror	eax, 2
	ror	eax, 2
	ror	eax, 2
	ror	eax, 2
	ror	eax, 2
	ror	eax, 2
	ror	eax, 2
	ror	eax, 2
	ror	eax, 2
	ror	eax, 2
	ror	eax, 2
	ror	eax, 2
	ror	eax, 2
	ror	eax, 2
	ror	eax, 2
	ror	eax, 2
	ror	eax, 2
	ror	eax, 2
	ror	eax, 2
	ror	eax, 2
	ror	eax, 2
	ror	eax, 2
	ror	eax, 2
	ror	eax, 2
	ror	eax, 2
	ror	eax, 2
	ror	eax, 2
	ror	eax, 2
	ror	eax, 2
	ror	eax, 2
	ror	eax, 2
	ror	eax, 2
	ror	eax, 2
	ror	eax, 2
	ror	eax, 2
	ror	eax, 2
	ror	eax, 2
	ror	eax, 2
	ror	eax, 2
	ror	eax, 2
	ror	eax, 2
	ror	eax, 2
	ror	eax, 2
	ror	eax, 2
	ror	eax, 2
	ror	eax, 2
	ror	eax, 2
	ror	eax, 2
	ror	eax, 2
	ror	eax, 2
	ror	eax, 2
	ror	eax, 2
	ror	eax, 2
	ror	eax, 2
	ror	eax, 2
	ror	eax, 2
	ror	eax, 2
	ror	eax, 2
	ror	eax, 2
	ror	eax, 2
	ror	eax, 2
	ror	eax, 2
	ror	eax, 2
	ror	eax, 2
	ror	eax, 2
	ror	eax, 2
	ror	eax, 2
	ror	eax, 2
	ror	eax, 2
	ror	eax, 2
	ror	eax, 2
	ror	eax, 2
	ror	eax, 2
	ror	eax, 2
	ror	eax, 2
	ror	eax, 2
	ror	eax, 2
	ror	eax, 2
	ror	eax, 2
	ror	eax, 2
	ror	eax, 2
	ror	eax, 2
	ror	eax, 2
	ror	eax, 2
	ror	eax, 2
	ror	eax, 2
	ror	eax, 2
	ror	eax, 2
	ror	eax, 2
	ror	eax, 2
	ror	eax, 2
	ror	eax, 2
	ror	eax, 2
	ror	eax, 2
	ror	eax, 2
	ror	eax, 2
	ror	eax, 2
	ror	eax, 2
	ror	eax, 2
	ror	eax, 2
	ror	eax, 2
	ror	eax, 2
	ror	eax, 2
	ror	eax, 2
	ror	eax, 2
	ror	eax, 2
	ror	eax, 2
	ror	eax, 2
	ror	eax, 2
	ror	eax, 2
	ror	eax, 2
	ror	eax, 2
	ror	eax, 2
	ror	eax, 2
	ror	eax, 2
	ror	eax, 2
	ror	eax, 2
	ror	eax, 2
	ror	eax, 2
	ror	eax, 2
	ror	eax, 2
	ror	eax, 2
	ror	eax, 2
	ror	eax, 2
	ror	eax, 2
	ror	eax, 2
	ror	eax, 2
	ror	eax, 2
	ror	eax, 2
	ror	eax, 2
	ror	eax, 2
	ror	eax, 2
	ror	eax, 2
	ror	eax, 2
	ror	eax, 2
	ror	eax, 2
	ror	eax, 2
	ror	eax, 2
	ror	eax, 2
	ror	eax, 2
	ror	eax, 2
	ror	eax, 2
	ror	eax, 2
	ror	eax, 2
	ror	eax, 2
	ror	eax, 2
	ror	eax, 2
	ror	eax, 2
	ror	eax, 2
	ror	eax, 2
	ror	eax, 2
	ror	eax, 2
	ror	eax, 2
	ror	eax, 2
	ror	eax, 2
	ror	eax, 2
	ror	eax, 2
	ror	eax, 2
	ror	eax, 2
	ror	eax, 2
	ror	eax, 2
	ror	eax, 2
	ror	eax, 2
	ror	eax, 2
	ror	eax, 2
	ror	eax, 2
	ror	eax, 2
	ror	eax, 2
	ror	eax, 2
	ror	eax, 2
	ror	eax, 2
	ror	eax, 2
	ror	eax, 2
	ror	eax, 2
	ror	eax, 2
	ror	eax, 2
	ror	eax, 2
	ror	eax, 2
	ror	eax, 2
	ror	eax, 2
	ror	eax, 2
	ror	eax, 2
	ror	eax, 2
	ror	eax, 2
	ror	eax, 2
	ror	eax, 2
	ror	eax, 2
	ror	eax, 2
	ror	eax, 2
	ror	eax, 2
	ror	eax, 2
	ror	eax, 2
	ror	eax, 2
	ror	eax, 2
	ror	eax, 2
	ror	eax, 2
	ror	eax, 2
	ror	eax, 2
	ror	eax, 2
	ror	eax, 2
	ror	eax, 2
	ror	eax, 2
	ror	eax, 2
	ror	eax, 2
	ror	eax, 2
	ror	eax, 2
	ror	eax, 2
	ror	eax, 2
	ror	eax, 2
	ror	eax, 2
	ror	eax, 2
	ror	eax, 2
	ror	eax, 2
	ror	eax, 2
	ror	eax, 2
	ror	eax, 2
	ror	eax, 2
	ror	eax, 2
	ror	eax, 2
	ror	eax, 2
	ror	eax, 2
	ror	eax, 2
	ror	eax, 2
	ror	eax, 2
	ror	eax, 2
	ror	eax, 2
	ror	eax, 2
	ror	eax, 2
	ror	eax, 2
	ror	eax, 2
	ror	eax, 2
	ror	eax, 2
	ror	eax, 2
	ror	eax, 2
	ror	eax, 2
	ror	eax, 2
	ror	eax, 2
	ror	eax, 2
	ror	eax, 2
	ror	eax, 2
	ror	eax, 2
	ror	eax, 2
	ror	eax, 2
	ror	eax, 2
	ror	eax, 2
	ror	eax, 2
	ror	eax, 2
	ror	eax, 2
	ror	eax, 2
	ror	eax, 2
	ror	eax, 2
	ror	eax, 2
	ror	eax, 2
	ror	eax, 2
	ror	eax, 2
	ror	eax, 2
	ror	eax, 2
	ror	eax, 2
	ror	eax, 2
	ror	eax, 2
	ror	eax, 2
	ror	eax, 2
	ror	eax, 2
	ror	eax, 2
	ror	eax, 2
	ror	eax, 2
	ror	eax, 2
	ror	eax, 2
	ror	eax, 2
	ror	eax, 2
	ror	eax, 2
	ror	eax, 2
	ror	eax, 2
	ror	eax, 2
	ror	eax, 2
	ror	eax, 2
	ror	eax, 2
	ror	eax, 2
	ror	eax, 2
	ror	eax, 2
	ror	eax, 2
	ror	eax, 2
	ror	eax, 2
	ror	eax, 2
	ror	eax, 2
	ror	eax, 2
	ror	eax, 2
	ror	eax, 2
	ror	eax, 2
	ror	eax, 2
	ror	eax, 2
	ror	eax, 2
	ror	eax, 2
	ror	eax, 2
	ror	eax, 2
	ror	eax, 2
	ror	eax, 2
	ror	eax, 2
	ror	eax, 2
	ror	eax, 2
	ror	eax, 2
	ror	eax, 2
	ror	eax, 2
	ror	eax, 2
	ror	eax, 2
	ror	eax, 2
	ror	eax, 2
	ror	eax, 2
	ror	eax, 2
	ror	eax, 2
	ror	eax, 2
	ror	eax, 2
	ror	eax, 2
	ror	eax, 2
	ror	eax, 2
	ror	eax, 2
	ror	eax, 2
	ror	eax, 2
	ror	eax, 2
	ror	eax, 2
	ror	eax, 2
	ror	eax, 2
	ror	eax, 2
	ror	eax, 2
	ror	eax, 2
	ror	eax, 2
	ror	eax, 2
	ror	eax, 2
	ror	eax, 2
	ror	eax, 2
	ror	eax, 2
	ror	eax, 2
	ror	eax, 2
	ror	eax, 2
	ror	eax, 2
	ror	eax, 2
	ror	eax, 2
	ror	eax, 2
	ror	eax, 2
	ror	eax, 2
	ror	eax, 2
	ror	eax, 2
	ror	eax, 2
	ror	eax, 2
	ror	eax, 2
	ror	eax, 2
	ror	eax, 2
	ror	eax, 2
	ror	eax, 2
	ror	eax, 2
	ror	eax, 2
	ror	eax, 2
	ror	eax, 2
	ror	eax, 2
	ror	eax, 2
	ror	eax, 2
	ror	eax, 2
	ror	eax, 2
	ror	eax, 2
	ror	eax, 2
	ror	eax, 2
	ror	eax, 2
	ror	eax, 2
	ror	eax, 2
	ror	eax, 2
	ror	eax, 2
	ror	eax, 2
	ror	eax, 2
	ror	eax, 2
	ror	eax, 2
	ror	eax, 2
	ror	eax, 2
	ror	eax, 2
	ror	eax, 2
	ror	eax, 2
	ror	eax, 2
	ror	eax, 2
	ror	eax, 2
	ror	eax, 2
	ror	eax, 2
	ror	eax, 2
	ror	eax, 2
	ror	eax, 2
	ror	eax, 2
	ror	eax, 2
	ror	eax, 2
	ror	eax, 2
	ror	eax, 2
	ror	eax, 2
	ror	eax, 2
	ror	eax, 2
	ror	eax, 2
	ror	eax, 2
	ror	eax, 2
	ror	eax, 2
	ror	eax, 2
	ror	eax, 2
	ror	eax, 2
	ror	eax, 2
	ror	eax, 2
	ror	eax, 2
	ror	eax, 2
	ror	eax, 2
	ror	eax, 2
	ror	eax, 2
	ror	eax, 2
	ror	eax, 2
	ror	eax, 2
	ror	eax, 2
	ror	eax, 2
	ror	eax, 2
	ror	eax, 2
	ror	eax, 2
	ror	eax, 2
	ror	eax, 2
	ror	eax, 2
	ror	eax, 2
	ror	eax, 2
	ror	eax, 2
	ror	eax, 2
	ror	eax, 2
	ror	eax, 2
	ror	eax, 2
	ror	eax, 2
	ror	eax, 2
	ror	eax, 2
	ror	eax, 2
	ror	eax, 2
	ror	eax, 2
	ror	eax, 2
	ror	eax, 2
	ror	eax, 2
	ror	eax, 2
	ror	eax, 2
	ror	eax, 2
	ror	eax, 2
	ror	eax, 2
	ror	eax, 2
	ror	eax, 2
	ror	eax, 2
	ror	eax, 2
	ror	eax, 2
	ror	eax, 2
	ror	eax, 2
	ror	eax, 2
	ror	eax, 2
	ror	eax, 2
	ror	eax, 2
	ror	eax, 2
	ror	eax, 2
	ror	eax, 2
	ror	eax, 2
	ror	eax, 2
	ror	eax, 2
	ror	eax, 2
	ror	eax, 2
	ror	eax, 2
	ror	eax, 2
	ror	eax, 2
	ror	eax, 2
	ror	eax, 2
	ror	eax, 2
	ror	eax, 2
	ror	eax, 2
	ror	eax, 2
	ror	eax, 2
	ror	eax, 2
	ror	eax, 2
	ror	eax, 2
	ror	eax, 2
	ror	eax, 2
	ror	eax, 2
	ror	eax, 2
	ror	eax, 2
	ror	eax, 2
	ror	eax, 2
	ror	eax, 2
	ror	eax, 2
	ror	eax, 2
	ror	eax, 2
	ror	eax, 2
	ror	eax, 2
	ror	eax, 2
	ror	eax, 2
	ror	eax, 2
	ror	eax, 2
	ror	eax, 2
	ror	eax, 2
	ror	eax, 2
	ror	eax, 2
	ror	eax, 2
	ror	eax, 2
	ror	eax, 2
	ror	eax, 2
	ror	eax, 2
	ror	eax, 2
	ror	eax, 2
	ror	eax, 2
	ror	eax, 2
	ror	eax, 2
	ror	eax, 2
	ror	eax, 2
	ror	eax, 2
	ror	eax, 2
	ror	eax, 2
	ror	eax, 2
	ror	eax, 2
	ror	eax, 2
	ror	eax, 2
	ror	eax, 2
	ror	eax, 2
	ror	eax, 2
	ror	eax, 2
	ror	eax, 2
	ror	eax, 2
	ror	eax, 2
	ror	eax, 2
	ror	eax, 2
	ror	eax, 2
	ror	eax, 2
	ror	eax, 2
	ror	eax, 2
	ror	eax, 2
	ror	eax, 2
	ror	eax, 2
	ror	eax, 2
	ror	eax, 2
	ror	eax, 2
	ror	eax, 2
	ror	eax, 2
	ror	eax, 2
	ror	eax, 2
	ror	eax, 2
	ror	eax, 2
	ror	eax, 2
	ror	eax, 2
	ror	eax, 2
	ror	eax, 2
	ror	eax, 2
	ror	eax, 2
	ror	eax, 2
	ror	eax, 2
	ror	eax, 2
	ror	eax, 2
	ror	eax, 2
	ror	eax, 2
	ror	eax, 2
	ror	eax, 2
	ror	eax, 2
	ror	eax, 2
	ror	eax, 2
	ror	eax, 2
	ror	eax, 2
	ror	eax, 2
	ror	eax, 2
	ror	eax, 2
	ror	eax, 2
	ror	eax, 2
	ror	eax, 2
	ror	eax, 2
	ror	eax, 2
	ror	eax, 2
	ror	eax, 2
	ror	eax, 2
	ror	eax, 2
	ror	eax, 2
	ror	eax, 2
	ror	eax, 2
	ror	eax, 2
	ror	eax, 2
	ror	eax, 2
	ror	eax, 2
	ror	eax, 2
	ror	eax, 2
	ror	eax, 2
	ror	eax, 2
	ror	eax, 2
	ror	eax, 2
	ror	eax, 2
	ror	eax, 2
	ror	eax, 2
	ror	eax, 2
	ror	eax, 2
	ror	eax, 2
	ror	eax, 2
	ror	eax, 2
	ror	eax, 2
	ror	eax, 2
	ror	eax, 2
	ror	eax, 2
	ror	eax, 2
	ror	eax, 2
	ror	eax, 2
	ror	eax, 2
	ror	eax, 2
	ror	eax, 2
	ror	eax, 2
	ror	eax, 2
	ror	eax, 2
	ror	eax, 2
	ror	eax, 2
	ror	eax, 2
	ror	eax, 2
	ror	eax, 2
	ror	eax, 2
	ror	eax, 2
	ror	eax, 2
	ror	eax, 2
	ror	eax, 2
	ror	eax, 2
	ror	eax, 2
	ror	eax, 2
	ror	eax, 2
	ror	eax, 2
	ror	eax, 2
	ror	eax, 2
	ror	eax, 2
	ror	eax, 2
	ror	eax, 2
	ror	eax, 2
	ror	eax, 2
	ror	eax, 2
	ror	eax, 2
	ror	eax, 2
	ror	eax, 2
	ror	eax, 2
	ror	eax, 2
	ror	eax, 2
	ror	eax, 2
	ror	eax, 2
	ror	eax, 2
	ror	eax, 2
	ror	eax, 2
	ror	eax, 2
	ror	eax, 2
	ror	eax, 2
	ror	eax, 2
	ror	eax, 2
	ror	eax, 2
	ror	eax, 2
	ror	eax, 2
	ror	eax, 2
	ror	eax, 2
	ror	eax, 2
	ror	eax, 2
	ror	eax, 2
	ror	eax, 2
	ror	eax, 2
	ror	eax, 2
	ror	eax, 2
	ror	eax, 2
	ror	eax, 2
	ror	eax, 2
	ror	eax, 2
	ror	eax, 2
	ror	eax, 2
	ror	eax, 2
	ror	eax, 2
	ror	eax, 2
	ror	eax, 2
	ror	eax, 2
	ror	eax, 2
	ror	eax, 2
	ror	eax, 2
	ror	eax, 2
	ror	eax, 2
	ror	eax, 2
	ror	eax, 2
	ror	eax, 2
	ror	eax, 2
	ror	eax, 2
	ror	eax, 2
	ror	eax, 2
	ror	eax, 2
	ror	eax, 2
	ror	eax, 2
	ror	eax, 2
	ror	eax, 2
	ror	eax, 2
	ror	eax, 2
	ror	eax, 2
	ror	eax, 2
	ror	eax, 2
	ror	eax, 2
	ror	eax, 2
	ror	eax, 2
	ror	eax, 2
	ror	eax, 2
	ror	eax, 2
	ror	eax, 2
	ror	eax, 2
	ror	eax, 2
	ror	eax, 2
	ror	eax, 2
	ror	eax, 2
	ror	eax, 2
	ror	eax, 2
	ror	eax, 2
	ror	eax, 2
	ror	eax, 2
	ror	eax, 2
	ror	eax, 2
	ror	eax, 2
	ror	eax, 2
	ror	eax, 2
	ror	eax, 2
	ror	eax, 2
	ror	eax, 2
	ror	eax, 2
	ror	eax, 2
	ror	eax, 2
	ror	eax, 2
	ror	eax, 2
	ror	eax, 2
	ror	eax, 2
	ror	eax, 2
	ror	eax, 2
	ror	eax, 2
	ror	eax, 2
	ror	eax, 2
	ror	eax, 2
	ror	eax, 2
	ror	eax, 2
	ror	eax, 2
	ror	eax, 2
	ror	eax, 2
	ror	eax, 2
	ror	eax, 2
	ror	eax, 2
	ror	eax, 2
	ror	eax, 2
	ror	eax, 2
	ror	eax, 2
	ror	eax, 2
	ror	eax, 2
	ror	eax, 2
	ror	eax, 2
	ror	eax, 2
	ror	eax, 2
	ror	eax, 2
	ror	eax, 2
	ror	eax, 2
	ror	eax, 2
	ror	eax, 2
	ror	eax, 2
	ror	eax, 2
	ror	eax, 2
	ror	eax, 2
	ror	eax, 2
	ror	eax, 2
	ror	eax, 2
	ror	eax, 2
	ror	eax, 2
	ror	eax, 2
	ror	eax, 2
	ror	eax, 2
	ror	eax, 2
	ror	eax, 2
	ror	eax, 2
	ror	eax, 2
	ror	eax, 2
	ror	eax, 2
	ror	eax, 2
	ror	eax, 2
	ror	eax, 2
	ror	eax, 2
	ror	eax, 2
	ror	eax, 2
	ror	eax, 2
	ror	eax, 2
	ror	eax, 2
	ror	eax, 2
	ror	eax, 2
	ror	eax, 2
	ror	eax, 2
	ror	eax, 2
	ror	eax, 2
	ror	eax, 2
	ror	eax, 2
	ror	eax, 2
	ror	eax, 2
	ror	eax, 2
	ror	eax, 2
	ror	eax, 2
	ror	eax, 2
	ror	eax, 2
	ror	eax, 2
	ror	eax, 2
	ror	eax, 2
	ror	eax, 2
	ror	eax, 2
	ror	eax, 2
	ror	eax, 2
	ror	eax, 2
	ror	eax, 2
	ror	eax, 2
	ror	eax, 2
	ror	eax, 2
	ror	eax, 2
	ror	eax, 2
	ror	eax, 2
	ror	eax, 2
	ror	eax, 2
	ror	eax, 2
	ror	eax, 2
	ror	eax, 2
	ror	eax, 2
	ror	eax, 2
	ror	eax, 2
	ror	eax, 2
	ror	eax, 2
	ror	eax, 2
	ror	eax, 2
	ror	eax, 2
	ror	eax, 2
	ror	eax, 2
	ror	eax, 2
	ror	eax, 2
	ror	eax, 2
	ror	eax, 2
	ror	eax, 2
	ror	eax, 2
	ror	eax, 2
	ror	eax, 2
	ror	eax, 2
	ror	eax, 2
	ror	eax, 2
	ror	eax, 2
	ror	eax, 2
	ror	eax, 2
	ror	eax, 2
	ror	eax, 2
	ror	eax, 2
	ror	eax, 2
	ror	eax, 2
	ror	eax, 2
	ror	eax, 2
	ror	eax, 2
	ror	eax, 2
	ror	eax, 2
	ror	eax, 2
	ror	eax, 2
	ror	eax, 2
	ror	eax, 2
	ror	eax, 2
	ror	eax, 2
	ror	eax, 2
	ror	eax, 2
	ror	eax, 2
	ror	eax, 2
	ror	eax, 2
	ror	eax, 2
	ror	eax, 2
	ror	eax, 2
	ror	eax, 2
	ror	eax, 2
	ror	eax, 2
	ror	eax, 2
; IFDEF LONGVER
	ror	eax, 2
	ror	eax, 2
	ror	eax, 2
	ror	eax, 2
	ror	eax, 2
	ror	eax, 2
	ror	eax, 2
	ror	eax, 2
	ror	eax, 2
	ror	eax, 2
	ror	eax, 2
	ror	eax, 2
	ror	eax, 2
	ror	eax, 2
	ror	eax, 2
	ror	eax, 2
	ror	eax, 2
	ror	eax, 2
	ror	eax, 2
	ror	eax, 2
	ror	eax, 2
	ror	eax, 2
	ror	eax, 2
	ror	eax, 2
	ror	eax, 2
	ror	eax, 2
	ror	eax, 2
	ror	eax, 2
	ror	eax, 2
	ror	eax, 2
	ror	eax, 2
	ror	eax, 2
	ror	eax, 2
	ror	eax, 2
	ror	eax, 2
	ror	eax, 2
	ror	eax, 2
	ror	eax, 2
	ror	eax, 2
	ror	eax, 2
	ror	eax, 2
	ror	eax, 2
	ror	eax, 2
	ror	eax, 2
	ror	eax, 2
	ror	eax, 2
	ror	eax, 2
	ror	eax, 2
	ror	eax, 2
	ror	eax, 2
	ror	eax, 2
	ror	eax, 2
	ror	eax, 2
	ror	eax, 2
	ror	eax, 2
	ror	eax, 2
	ror	eax, 2
	ror	eax, 2
	ror	eax, 2
	ror	eax, 2
	ror	eax, 2
	ror	eax, 2
	ror	eax, 2
	ror	eax, 2
	ror	eax, 2
	ror	eax, 2
	ror	eax, 2
	ror	eax, 2
	ror	eax, 2
	ror	eax, 2
	ror	eax, 2
	ror	eax, 2
	ror	eax, 2
	ror	eax, 2
	ror	eax, 2
	ror	eax, 2
	ror	eax, 2
	ror	eax, 2
	ror	eax, 2
	ror	eax, 2
	ror	eax, 2
	ror	eax, 2
	ror	eax, 2
	ror	eax, 2
	ror	eax, 2
	ror	eax, 2
	ror	eax, 2
	ror	eax, 2
	ror	eax, 2
	ror	eax, 2
	ror	eax, 2
	ror	eax, 2
	ror	eax, 2
	ror	eax, 2
	ror	eax, 2
	ror	eax, 2
	ror	eax, 2
	ror	eax, 2
	ror	eax, 2
	ror	eax, 2
	ror	eax, 2
	ror	eax, 2
	ror	eax, 2
	ror	eax, 2
	ror	eax, 2
	ror	eax, 2
	ror	eax, 2
	ror	eax, 2
	ror	eax, 2
	ror	eax, 2
	ror	eax, 2
	ror	eax, 2
	ror	eax, 2
	ror	eax, 2
	ror	eax, 2
	ror	eax, 2
	ror	eax, 2
	ror	eax, 2
	ror	eax, 2
	ror	eax, 2
	ror	eax, 2
	ror	eax, 2
	ror	eax, 2
	ror	eax, 2
	ror	eax, 2
	ror	eax, 2
	ror	eax, 2
	ror	eax, 2
	ror	eax, 2
	ror	eax, 2
	ror	eax, 2
	ror	eax, 2
	ror	eax, 2
	ror	eax, 2
	ror	eax, 2
	ror	eax, 2
	ror	eax, 2
	ror	eax, 2
	ror	eax, 2
	ror	eax, 2
	ror	eax, 2
	ror	eax, 2
	ror	eax, 2
	ror	eax, 2
	ror	eax, 2
	ror	eax, 2
	ror	eax, 2
	ror	eax, 2
	ror	eax, 2
	ror	eax, 2
	ror	eax, 2
	ror	eax, 2
	ror	eax, 2
	ror	eax, 2
	ror	eax, 2
	ror	eax, 2
	ror	eax, 2
	ror	eax, 2
	ror	eax, 2
	ror	eax, 2
	ror	eax, 2
	ror	eax, 2
	ror	eax, 2
	ror	eax, 2
	ror	eax, 2
	ror	eax, 2
	ror	eax, 2
	ror	eax, 2
	ror	eax, 2
	ror	eax, 2
	ror	eax, 2
	ror	eax, 2
	ror	eax, 2
	ror	eax, 2
	ror	eax, 2
	ror	eax, 2
	ror	eax, 2
	ror	eax, 2
	ror	eax, 2
	ror	eax, 2
	ror	eax, 2
	ror	eax, 2
	ror	eax, 2
	ror	eax, 2
	ror	eax, 2
	ror	eax, 2
	ror	eax, 2
	ror	eax, 2
	ror	eax, 2
	ror	eax, 2
	ror	eax, 2
	ror	eax, 2
	ror	eax, 2
	ror	eax, 2
	ror	eax, 2
	ror	eax, 2
	ror	eax, 2
	ror	eax, 2
	ror	eax, 2
	ror	eax, 2
	ror	eax, 2
	ror	eax, 2
	ror	eax, 2
	ror	eax, 2
	ror	eax, 2
	ror	eax, 2
	ror	eax, 2
	ror	eax, 2
	ror	eax, 2
	ror	eax, 2
	ror	eax, 2
	ror	eax, 2
	ror	eax, 2
	ror	eax, 2
	ror	eax, 2
	ror	eax, 2
	ror	eax, 2
	ror	eax, 2
	ror	eax, 2
	ror	eax, 2
	ror	eax, 2
	ror	eax, 2
	ror	eax, 2
	ror	eax, 2
	ror	eax, 2
	ror	eax, 2
	ror	eax, 2
	ror	eax, 2
	ror	eax, 2
	ror	eax, 2
	ror	eax, 2
	ror	eax, 2
	ror	eax, 2
	ror	eax, 2
	ror	eax, 2
	ror	eax, 2
	ror	eax, 2
	ror	eax, 2
	ror	eax, 2
	ror	eax, 2
	ror	eax, 2
	ror	eax, 2
	ror	eax, 2
	ror	eax, 2
	ror	eax, 2
	ror	eax, 2
	ror	eax, 2
	ror	eax, 2
	ror	eax, 2
	ror	eax, 2
	ror	eax, 2
	ror	eax, 2
	ror	eax, 2
	ror	eax, 2
	ror	eax, 2
	ror	eax, 2
	ror	eax, 2
	ror	eax, 2
	ror	eax, 2
	ror	eax, 2
	ror	eax, 2
	ror	eax, 2
	ror	eax, 2
	ror	eax, 2
	ror	eax, 2
	ror	eax, 2
	ror	eax, 2
	ror	eax, 2
	ror	eax, 2
	ror	eax, 2
	ror	eax, 2
	ror	eax, 2
	ror	eax, 2
	ror	eax, 2
	ror	eax, 2
	ror	eax, 2
	ror	eax, 2
	ror	eax, 2
	ror	eax, 2
	ror	eax, 2
	ror	eax, 2
	ror	eax, 2
	ror	eax, 2
	ror	eax, 2
	ror	eax, 2
	ror	eax, 2
	ror	eax, 2
	ror	eax, 2
	ror	eax, 2
	ror	eax, 2
	ror	eax, 2
	ror	eax, 2
	ror	eax, 2
	ror	eax, 2
	ror	eax, 2
	ror	eax, 2
	ror	eax, 2
	ror	eax, 2
	ror	eax, 2
	ror	eax, 2
	ror	eax, 2
	ror	eax, 2
	ror	eax, 2
	ror	eax, 2
	ror	eax, 2
	ror	eax, 2
	ror	eax, 2
	ror	eax, 2
	ror	eax, 2
	ror	eax, 2
	ror	eax, 2
	ror	eax, 2
	ror	eax, 2
	ror	eax, 2
	ror	eax, 2
	ror	eax, 2
	ror	eax, 2
	ror	eax, 2
	ror	eax, 2
	ror	eax, 2
	ror	eax, 2
	ror	eax, 2
	ror	eax, 2
	ror	eax, 2
	ror	eax, 2
	ror	eax, 2
	ror	eax, 2
	ror	eax, 2
	ror	eax, 2
	ror	eax, 2
	ror	eax, 2
	ror	eax, 2
	ror	eax, 2
	ror	eax, 2
	ror	eax, 2
	ror	eax, 2
	ror	eax, 2
	ror	eax, 2
	ror	eax, 2
	ror	eax, 2
	ror	eax, 2
	ror	eax, 2
	ror	eax, 2
	ror	eax, 2
	ror	eax, 2
	ror	eax, 2
	ror	eax, 2
	ror	eax, 2
	ror	eax, 2
	ror	eax, 2
	ror	eax, 2
	ror	eax, 2
	ror	eax, 2
	ror	eax, 2
	ror	eax, 2
	ror	eax, 2
	ror	eax, 2
	ror	eax, 2
	ror	eax, 2
	ror	eax, 2
	ror	eax, 2
	ror	eax, 2
	ror	eax, 2
	ror	eax, 2
	ror	eax, 2
	ror	eax, 2
	ror	eax, 2
	ror	eax, 2
	ror	eax, 2
	ror	eax, 2
	ror	eax, 2
	ror	eax, 2
	ror	eax, 2
	ror	eax, 2
	ror	eax, 2
	ror	eax, 2
	ror	eax, 2
	ror	eax, 2
	ror	eax, 2
	ror	eax, 2
	ror	eax, 2
	ror	eax, 2
	ror	eax, 2
	ror	eax, 2
	ror	eax, 2
	ror	eax, 2
	ror	eax, 2
	ror	eax, 2
	ror	eax, 2
	ror	eax, 2
	ror	eax, 2
	ror	eax, 2
	ror	eax, 2
	ror	eax, 2
	ror	eax, 2
	ror	eax, 2
	ror	eax, 2
	ror	eax, 2
	ror	eax, 2
	ror	eax, 2
	ror	eax, 2
	ror	eax, 2
	ror	eax, 2
	ror	eax, 2
	ror	eax, 2
	ror	eax, 2
	ror	eax, 2
	ror	eax, 2
	ror	eax, 2
	ror	eax, 2
	ror	eax, 2
	ror	eax, 2
	ror	eax, 2
	ror	eax, 2
	ror	eax, 2
	ror	eax, 2
	ror	eax, 2
	ror	eax, 2
	ror	eax, 2
	ror	eax, 2
	ror	eax, 2
	ror	eax, 2
	ror	eax, 2
	ror	eax, 2
	ror	eax, 2
	ror	eax, 2
	ror	eax, 2
	ror	eax, 2
	ror	eax, 2
	ror	eax, 2
	ror	eax, 2
	ror	eax, 2
	ror	eax, 2
	ror	eax, 2
	ror	eax, 2
	ror	eax, 2
	ror	eax, 2
	ror	eax, 2
	ror	eax, 2
	ror	eax, 2
	ror	eax, 2
	ror	eax, 2
	ror	eax, 2
	ror	eax, 2
	ror	eax, 2
	ror	eax, 2
	ror	eax, 2
	ror	eax, 2
	ror	eax, 2
	ror	eax, 2
	ror	eax, 2
	ror	eax, 2
	ror	eax, 2
	ror	eax, 2
	ror	eax, 2
	ror	eax, 2
	ror	eax, 2
	ror	eax, 2
	ror	eax, 2
	ror	eax, 2
	ror	eax, 2
	ror	eax, 2
	ror	eax, 2
	ror	eax, 2
	ror	eax, 2
	ror	eax, 2
	ror	eax, 2
	ror	eax, 2
	ror	eax, 2
	ror	eax, 2
	ror	eax, 2
	ror	eax, 2
	ror	eax, 2
	ror	eax, 2
	ror	eax, 2
	ror	eax, 2
	ror	eax, 2
	ror	eax, 2
	ror	eax, 2
	ror	eax, 2
	ror	eax, 2
	ror	eax, 2
	ror	eax, 2
	ror	eax, 2
	ror	eax, 2
	ror	eax, 2
	ror	eax, 2
	ror	eax, 2
	ror	eax, 2
	ror	eax, 2
	ror	eax, 2
	ror	eax, 2
	ror	eax, 2
	ror	eax, 2
	ror	eax, 2
	ror	eax, 2
	ror	eax, 2
	ror	eax, 2
	ror	eax, 2
	ror	eax, 2
	ror	eax, 2
	ror	eax, 2
	ror	eax, 2
	ror	eax, 2
	ror	eax, 2
	ror	eax, 2
	ror	eax, 2
	ror	eax, 2
	ror	eax, 2
	ror	eax, 2
	ror	eax, 2
	ror	eax, 2
	ror	eax, 2
	ror	eax, 2
	ror	eax, 2
	ror	eax, 2
	ror	eax, 2
	ror	eax, 2
	ror	eax, 2
	ror	eax, 2
	ror	eax, 2
	ror	eax, 2
	ror	eax, 2
	ror	eax, 2
	ror	eax, 2
	ror	eax, 2
	ror	eax, 2
	ror	eax, 2
	ror	eax, 2
	ror	eax, 2
	ror	eax, 2
	ror	eax, 2
	ror	eax, 2
	ror	eax, 2
	ror	eax, 2
	ror	eax, 2
	ror	eax, 2
	ror	eax, 2
	ror	eax, 2
	ror	eax, 2
	ror	eax, 2
	ror	eax, 2
	ror	eax, 2
	ror	eax, 2
	ror	eax, 2
	ror	eax, 2
	ror	eax, 2
	ror	eax, 2
	ror	eax, 2
	ror	eax, 2
	ror	eax, 2
	ror	eax, 2
	ror	eax, 2
	ror	eax, 2
	ror	eax, 2
	ror	eax, 2
	ror	eax, 2
	ror	eax, 2
	ror	eax, 2
	ror	eax, 2
	ror	eax, 2
	ror	eax, 2
	ror	eax, 2
	ror	eax, 2
	ror	eax, 2
	ror	eax, 2
	ror	eax, 2
	ror	eax, 2
	ror	eax, 2
	ror	eax, 2
	ror	eax, 2
	ror	eax, 2
	ror	eax, 2
	ror	eax, 2
	ror	eax, 2
	ror	eax, 2
	ror	eax, 2
	ror	eax, 2
	ror	eax, 2
	ror	eax, 2
	ror	eax, 2
	ror	eax, 2
	ror	eax, 2
	ror	eax, 2
	ror	eax, 2
	ror	eax, 2
	ror	eax, 2
	ror	eax, 2
	ror	eax, 2
	ror	eax, 2
	ror	eax, 2
	ror	eax, 2
	ror	eax, 2
	ror	eax, 2
	ror	eax, 2
	ror	eax, 2
	ror	eax, 2
	ror	eax, 2
	ror	eax, 2
	ror	eax, 2
	ror	eax, 2
	ror	eax, 2
	ror	eax, 2
	ror	eax, 2
	ror	eax, 2
	ror	eax, 2
	ror	eax, 2
	ror	eax, 2
	ror	eax, 2
	ror	eax, 2
	ror	eax, 2
	ror	eax, 2
	ror	eax, 2
	ror	eax, 2
	ror	eax, 2
	ror	eax, 2
	ror	eax, 2
	ror	eax, 2
	ror	eax, 2
	ror	eax, 2
	ror	eax, 2
	ror	eax, 2
	ror	eax, 2
	ror	eax, 2
	ror	eax, 2
	ror	eax, 2
	ror	eax, 2
	ror	eax, 2
	ror	eax, 2
	ror	eax, 2
	ror	eax, 2
	ror	eax, 2
	ror	eax, 2
	ror	eax, 2
	ror	eax, 2
	ror	eax, 2
	ror	eax, 2
	ror	eax, 2
	ror	eax, 2
	ror	eax, 2
	ror	eax, 2
	ror	eax, 2
	ror	eax, 2
	ror	eax, 2
	ror	eax, 2
	ror	eax, 2
	ror	eax, 2
	ror	eax, 2
	ror	eax, 2
	ror	eax, 2
	ror	eax, 2
	ror	eax, 2
	ror	eax, 2
	ror	eax, 2
	ror	eax, 2
	ror	eax, 2
	ror	eax, 2
	ror	eax, 2
	ror	eax, 2
	ror	eax, 2
	ror	eax, 2
	ror	eax, 2
	ror	eax, 2
	ror	eax, 2
	ror	eax, 2
	ror	eax, 2
	ror	eax, 2
	ror	eax, 2
	ror	eax, 2
	ror	eax, 2
	ror	eax, 2
	ror	eax, 2
	ror	eax, 2
	ror	eax, 2
	ror	eax, 2
	ror	eax, 2
	ror	eax, 2
	ror	eax, 2
	ror	eax, 2
	ror	eax, 2
	ror	eax, 2
	ror	eax, 2
	ror	eax, 2
	ror	eax, 2
	ror	eax, 2
	ror	eax, 2
	ror	eax, 2
	ror	eax, 2
	ror	eax, 2
	ror	eax, 2
	ror	eax, 2
	ror	eax, 2
	ror	eax, 2
	ror	eax, 2
	ror	eax, 2
	ror	eax, 2
	ror	eax, 2
	ror	eax, 2
	ror	eax, 2
	ror	eax, 2
	ror	eax, 2
	ror	eax, 2
	ror	eax, 2
	ror	eax, 2
	ror	eax, 2
	ror	eax, 2
	ror	eax, 2
	ror	eax, 2
	ror	eax, 2
	ror	eax, 2
	ror	eax, 2
	ror	eax, 2
	ror	eax, 2
	ror	eax, 2
	ror	eax, 2
	ror	eax, 2
	ror	eax, 2
	ror	eax, 2
	ror	eax, 2
	ror	eax, 2
	ror	eax, 2
	ror	eax, 2
	ror	eax, 2
	ror	eax, 2
	ror	eax, 2
	ror	eax, 2
	ror	eax, 2
	ror	eax, 2
	ror	eax, 2
	ror	eax, 2
	ror	eax, 2
	ror	eax, 2
	ror	eax, 2
	ror	eax, 2
	ror	eax, 2
	ror	eax, 2
	ror	eax, 2
	ror	eax, 2
	ror	eax, 2
	ror	eax, 2
	ror	eax, 2
	ror	eax, 2
	ror	eax, 2
	ror	eax, 2
	ror	eax, 2
	ror	eax, 2
	ror	eax, 2
	ror	eax, 2
	ror	eax, 2
	ror	eax, 2
	ror	eax, 2
	ror	eax, 2
	ror	eax, 2
	ror	eax, 2
	ror	eax, 2
	ror	eax, 2
	ror	eax, 2
	ror	eax, 2
	ror	eax, 2
	ror	eax, 2
	ror	eax, 2
	ror	eax, 2
	ror	eax, 2
	ror	eax, 2
	ror	eax, 2
	ror	eax, 2
	ror	eax, 2
	ror	eax, 2
	ror	eax, 2
	ror	eax, 2
	ror	eax, 2
	ror	eax, 2
	ror	eax, 2
	ror	eax, 2
	ror	eax, 2
	ror	eax, 2
	ror	eax, 2
	ror	eax, 2
	ror	eax, 2
	ror	eax, 2
	ror	eax, 2
	ror	eax, 2
	ror	eax, 2
	ror	eax, 2
	ror	eax, 2
	ror	eax, 2
	ror	eax, 2
	ror	eax, 2
	ror	eax, 2
	ror	eax, 2
	ror	eax, 2
	ror	eax, 2
	ror	eax, 2
	ror	eax, 2
	ror	eax, 2
	ror	eax, 2
	ror	eax, 2
	ror	eax, 2
	ror	eax, 2
	ror	eax, 2
	ror	eax, 2
	ror	eax, 2
	ror	eax, 2
	ror	eax, 2
	ror	eax, 2
	ror	eax, 2
	ror	eax, 2
	ror	eax, 2
	ror	eax, 2
	ror	eax, 2
	ror	eax, 2
	ror	eax, 2
	ror	eax, 2
	ror	eax, 2
	ror	eax, 2
	ror	eax, 2
	ror	eax, 2
	ror	eax, 2
	ror	eax, 2
	ror	eax, 2
	ror	eax, 2
	ror	eax, 2
	ror	eax, 2
	ror	eax, 2
	ror	eax, 2
	ror	eax, 2
	ror	eax, 2
	ror	eax, 2
	ror	eax, 2
	ror	eax, 2
	ror	eax, 2
	ror	eax, 2
	ror	eax, 2
	ror	eax, 2
	ror	eax, 2
	ror	eax, 2
	ror	eax, 2
	ror	eax, 2
	ror	eax, 2
	ror	eax, 2
	ror	eax, 2
	ror	eax, 2
	ror	eax, 2
	ror	eax, 2
	ror	eax, 2
	ror	eax, 2
	ror	eax, 2
	ror	eax, 2
	ror	eax, 2
	ror	eax, 2
	ror	eax, 2
	ror	eax, 2
	ror	eax, 2
	ror	eax, 2
	ror	eax, 2
	ror	eax, 2
	ror	eax, 2
	ror	eax, 2
	ror	eax, 2
	ror	eax, 2
	ror	eax, 2
	ror	eax, 2
	ror	eax, 2
	ror	eax, 2
	ror	eax, 2
	ror	eax, 2
	ror	eax, 2
	ror	eax, 2
	ror	eax, 2
	ror	eax, 2
	ror	eax, 2
	ror	eax, 2
	ror	eax, 2
	ror	eax, 2
	ror	eax, 2
	ror	eax, 2
	ror	eax, 2
	ror	eax, 2
	ror	eax, 2
	ror	eax, 2
	ror	eax, 2
	ror	eax, 2
	ror	eax, 2
	ror	eax, 2
	ror	eax, 2
	ror	eax, 2
	ror	eax, 2
	ror	eax, 2
	ror	eax, 2
	ror	eax, 2
	ror	eax, 2
	ror	eax, 2
	ror	eax, 2
	ror	eax, 2
	ror	eax, 2
	ror	eax, 2
	ror	eax, 2
	ror	eax, 2
	ror	eax, 2
	ror	eax, 2
	ror	eax, 2
	ror	eax, 2
	ror	eax, 2
	ror	eax, 2
	ror	eax, 2
	ror	eax, 2
	ror	eax, 2
	ror	eax, 2
	ror	eax, 2
	ror	eax, 2
	ror	eax, 2
	ror	eax, 2
	ror	eax, 2
	ror	eax, 2
	ror	eax, 2
	ror	eax, 2
	ror	eax, 2
	ror	eax, 2
	ror	eax, 2
	ror	eax, 2
	ror	eax, 2
	ror	eax, 2
	ror	eax, 2
	ror	eax, 2
	ror	eax, 2
	ror	eax, 2
	ror	eax, 2
	ror	eax, 2
	ror	eax, 2
	ror	eax, 2
	ror	eax, 2
	ror	eax, 2
	ror	eax, 2
	ror	eax, 2
	ror	eax, 2
	ror	eax, 2
	ror	eax, 2
	ror	eax, 2
	ror	eax, 2
	ror	eax, 2
	ror	eax, 2
	ror	eax, 2
	ror	eax, 2
	ror	eax, 2
	ror	eax, 2
	ror	eax, 2
	ror	eax, 2
	ror	eax, 2
	ror	eax, 2
	ror	eax, 2
	ror	eax, 2
	ror	eax, 2
	ror	eax, 2
	ror	eax, 2
	ror	eax, 2
	ror	eax, 2
	ror	eax, 2
	ror	eax, 2
	ror	eax, 2
	ror	eax, 2
	ror	eax, 2
	ror	eax, 2
	ror	eax, 2
	ror	eax, 2
	ror	eax, 2
	ror	eax, 2
	ror	eax, 2
	ror	eax, 2
	ror	eax, 2
	ror	eax, 2
	ror	eax, 2
	ror	eax, 2
	ror	eax, 2
	ror	eax, 2
	ror	eax, 2
	ror	eax, 2
	ror	eax, 2
	ror	eax, 2
	ror	eax, 2
	ror	eax, 2
	ror	eax, 2
	ror	eax, 2
	ror	eax, 2
	ror	eax, 2
	ror	eax, 2
	ror	eax, 2
	ror	eax, 2
	ror	eax, 2
	ror	eax, 2
	ror	eax, 2
	ror	eax, 2
	ror	eax, 2
	ror	eax, 2
	ror	eax, 2
	ror	eax, 2
	ror	eax, 2
	ror	eax, 2
	ror	eax, 2
	ror	eax, 2
	ror	eax, 2
	ror	eax, 2
	ror	eax, 2
	ror	eax, 2
	ror	eax, 2
	ror	eax, 2
	ror	eax, 2
	ror	eax, 2
	ror	eax, 2
	ror	eax, 2
	ror	eax, 2
	ror	eax, 2
	ror	eax, 2
	ror	eax, 2
	ror	eax, 2
	ror	eax, 2
	ror	eax, 2
	ror	eax, 2
	ror	eax, 2
	ror	eax, 2
	ror	eax, 2
	ror	eax, 2
	ror	eax, 2
	ror	eax, 2
	ror	eax, 2
	ror	eax, 2
	ror	eax, 2
	ror	eax, 2
	ror	eax, 2
	ror	eax, 2
	ror	eax, 2
	ror	eax, 2
	ror	eax, 2
	ror	eax, 2
	ror	eax, 2
	ror	eax, 2
	ror	eax, 2
	ror	eax, 2
	ror	eax, 2
	ror	eax, 2
	ror	eax, 2
	ror	eax, 2
	ror	eax, 2
	ror	eax, 2
	ror	eax, 2
	ror	eax, 2
	ror	eax, 2
	ror	eax, 2
	ror	eax, 2
	ror	eax, 2
	ror	eax, 2
	ror	eax, 2
	ror	eax, 2
	ror	eax, 2
	ror	eax, 2
	ror	eax, 2
	ror	eax, 2
	ror	eax, 2
	ror	eax, 2
	ror	eax, 2
	ror	eax, 2
	ror	eax, 2
	ror	eax, 2
	ror	eax, 2
	ror	eax, 2
	ror	eax, 2
	ror	eax, 2
	ror	eax, 2
	ror	eax, 2
	ror	eax, 2
	ror	eax, 2
	ror	eax, 2
	ror	eax, 2
	ror	eax, 2
	ror	eax, 2
	ror	eax, 2
	ror	eax, 2
	ror	eax, 2
	ror	eax, 2
	ror	eax, 2
	ror	eax, 2
	ror	eax, 2
	ror	eax, 2
	ror	eax, 2
	ror	eax, 2
	ror	eax, 2
	ror	eax, 2
	ror	eax, 2
	ror	eax, 2
	ror	eax, 2
	ror	eax, 2
	ror	eax, 2
	ror	eax, 2
	ror	eax, 2
	ror	eax, 2
	ror	eax, 2
	ror	eax, 2
	ror	eax, 2
	ror	eax, 2
	ror	eax, 2
	ror	eax, 2
	ror	eax, 2
	ror	eax, 2
	ror	eax, 2
	ror	eax, 2
	ror	eax, 2
	ror	eax, 2
	ror	eax, 2
	ror	eax, 2
	ror	eax, 2
	ror	eax, 2
	ror	eax, 2
	ror	eax, 2
	ror	eax, 2
	ror	eax, 2
	ror	eax, 2
	ror	eax, 2
	ror	eax, 2
	ror	eax, 2
	ror	eax, 2
	ror	eax, 2
	ror	eax, 2
	ror	eax, 2
	ror	eax, 2
	ror	eax, 2
	ror	eax, 2
	ror	eax, 2
	ror	eax, 2
	ror	eax, 2
	ror	eax, 2
	ror	eax, 2
	ror	eax, 2
	ror	eax, 2
	ror	eax, 2
	ror	eax, 2
	ror	eax, 2
	ror	eax, 2
	ror	eax, 2
	ror	eax, 2
	ror	eax, 2
	ror	eax, 2
	ror	eax, 2
	ror	eax, 2
	ror	eax, 2
	ror	eax, 2
	ror	eax, 2
	ror	eax, 2
	ror	eax, 2
	ror	eax, 2
	ror	eax, 2
	ror	eax, 2
	ror	eax, 2
	ror	eax, 2
	ror	eax, 2
	ror	eax, 2
	ror	eax, 2
	ror	eax, 2
	ror	eax, 2
	ror	eax, 2
	ror	eax, 2
	ror	eax, 2
	ror	eax, 2
	ror	eax, 2
	ror	eax, 2
	ror	eax, 2
	ror	eax, 2
	ror	eax, 2
	ror	eax, 2
	ror	eax, 2
	ror	eax, 2
	ror	eax, 2
	ror	eax, 2
	ror	eax, 2
	ror	eax, 2
	ror	eax, 2
	ror	eax, 2
	ror	eax, 2
	ror	eax, 2
	ror	eax, 2
	ror	eax, 2
	ror	eax, 2
	ror	eax, 2
	ror	eax, 2
	ror	eax, 2
	ror	eax, 2
	ror	eax, 2
	ror	eax, 2
	ror	eax, 2
	ror	eax, 2
	ror	eax, 2
	ror	eax, 2
	ror	eax, 2
	ror	eax, 2
	ror	eax, 2
	ror	eax, 2
	ror	eax, 2
	ror	eax, 2
	ror	eax, 2
	ror	eax, 2
	ror	eax, 2
	ror	eax, 2
	ror	eax, 2
	ror	eax, 2
	ror	eax, 2
	ror	eax, 2
	ror	eax, 2
	ror	eax, 2
	ror	eax, 2
	ror	eax, 2
	ror	eax, 2
	ror	eax, 2
	ror	eax, 2
	ror	eax, 2
	ror	eax, 2
	ror	eax, 2
	ror	eax, 2
	ror	eax, 2
	ror	eax, 2
	ror	eax, 2
	ror	eax, 2
	ror	eax, 2
	ror	eax, 2
	ror	eax, 2
	ror	eax, 2
	ror	eax, 2
	ror	eax, 2
	ror	eax, 2
	ror	eax, 2
	ror	eax, 2
	ror	eax, 2
	ror	eax, 2
	ror	eax, 2
	ror	eax, 2
	ror	eax, 2
	ror	eax, 2
	ror	eax, 2
	ror	eax, 2
	ror	eax, 2
	ror	eax, 2
	ror	eax, 2
	ror	eax, 2
	ror	eax, 2
	ror	eax, 2
	ror	eax, 2
	ror	eax, 2
	ror	eax, 2
	ror	eax, 2
	ror	eax, 2
	ror	eax, 2
	ror	eax, 2
	ror	eax, 2
	ror	eax, 2
	ror	eax, 2
	ror	eax, 2
	ror	eax, 2
	ror	eax, 2
	ror	eax, 2
	ror	eax, 2
	ror	eax, 2
	ror	eax, 2
	ror	eax, 2
	ror	eax, 2
	ror	eax, 2
	ror	eax, 2
	ror	eax, 2
	ror	eax, 2
	ror	eax, 2
	ror	eax, 2
	ror	eax, 2
	ror	eax, 2
	ror	eax, 2
	ror	eax, 2
	ror	eax, 2
	ror	eax, 2
	ror	eax, 2
	ror	eax, 2
	ror	eax, 2
	ror	eax, 2
	ror	eax, 2
	ror	eax, 2
	ror	eax, 2
	ror	eax, 2
	ror	eax, 2
	ror	eax, 2
	ror	eax, 2
	ror	eax, 2
	ror	eax, 2
	ror	eax, 2
	ror	eax, 2
	ror	eax, 2
	ror	eax, 2
	ror	eax, 2
	ror	eax, 2
	ror	eax, 2
	ror	eax, 2
	ror	eax, 2
	ror	eax, 2
	ror	eax, 2
	ror	eax, 2
	ror	eax, 2
	ror	eax, 2
	ror	eax, 2
	ror	eax, 2
	ror	eax, 2
	ror	eax, 2
	ror	eax, 2
	ror	eax, 2
	ror	eax, 2
	ror	eax, 2
	ror	eax, 2
	ror	eax, 2
	ror	eax, 2
	ror	eax, 2
	ror	eax, 2
	ror	eax, 2
	ror	eax, 2
	ror	eax, 2
	ror	eax, 2
	ror	eax, 2
	ror	eax, 2
	ror	eax, 2
	ror	eax, 2
	ror	eax, 2
	ror	eax, 2
	ror	eax, 2
	ror	eax, 2
	ror	eax, 2
	ror	eax, 2
	ror	eax, 2
	ror	eax, 2
	ror	eax, 2
	ror	eax, 2
	ror	eax, 2
	ror	eax, 2
	ror	eax, 2
	ror	eax, 2
	ror	eax, 2
	ror	eax, 2
	ror	eax, 2
	ror	eax, 2
	ror	eax, 2
	ror	eax, 2
	ror	eax, 2
	ror	eax, 2
	ror	eax, 2
	ror	eax, 2
	ror	eax, 2
	ror	eax, 2
	ror	eax, 2
	ror	eax, 2
	ror	eax, 2
	ror	eax, 2
	ror	eax, 2
	ror	eax, 2
	ror	eax, 2
	ror	eax, 2
	ror	eax, 2
	ror	eax, 2
	ror	eax, 2
	ror	eax, 2
	ror	eax, 2
	ror	eax, 2
	ror	eax, 2
	ror	eax, 2
	ror	eax, 2
	ror	eax, 2
	ror	eax, 2
	ror	eax, 2
	ror	eax, 2
	ror	eax, 2
	ror	eax, 2
	ror	eax, 2
	ror	eax, 2
	ror	eax, 2
	ror	eax, 2
	ror	eax, 2
	ror	eax, 2
	ror	eax, 2
	ror	eax, 2
	ror	eax, 2
	ror	eax, 2
	ror	eax, 2
	ror	eax, 2
	ror	eax, 2
	ror	eax, 2
	ror	eax, 2
	ror	eax, 2
	ror	eax, 2
	ror	eax, 2
	ror	eax, 2
	ror	eax, 2
	ror	eax, 2
	ror	eax, 2
	ror	eax, 2
	ror	eax, 2
	ror	eax, 2
	ror	eax, 2
	ror	eax, 2
	ror	eax, 2
	ror	eax, 2
	ror	eax, 2
	ror	eax, 2
	ror	eax, 2
	ror	eax, 2
	ror	eax, 2
	ror	eax, 2
	ror	eax, 2
	ror	eax, 2
	ror	eax, 2
	ror	eax, 2
	ror	eax, 2
	ror	eax, 2
	ror	eax, 2
	ror	eax, 2
	ror	eax, 2
	ror	eax, 2
	ror	eax, 2
	ror	eax, 2
	ror	eax, 2
	ror	eax, 2
	ror	eax, 2
	ror	eax, 2
	ror	eax, 2
	ror	eax, 2
	ror	eax, 2
	ror	eax, 2
	ror	eax, 2
	ror	eax, 2
	ror	eax, 2
	ror	eax, 2
	ror	eax, 2
	ror	eax, 2
	ror	eax, 2
	ror	eax, 2
	ror	eax, 2
	ror	eax, 2
	ror	eax, 2
	ror	eax, 2
	ror	eax, 2
	ror	eax, 2
	ror	eax, 2
	ror	eax, 2
	ror	eax, 2
	ror	eax, 2
	ror	eax, 2
	ror	eax, 2
	ror	eax, 2
	ror	eax, 2
	ror	eax, 2
	ror	eax, 2
	ror	eax, 2
	ror	eax, 2
	ror	eax, 2
	ror	eax, 2
	ror	eax, 2
	ror	eax, 2
	ror	eax, 2
	ror	eax, 2
	ror	eax, 2
	ror	eax, 2
	ror	eax, 2
	ror	eax, 2
	ror	eax, 2
	ror	eax, 2
	ror	eax, 2
	ror	eax, 2
	ror	eax, 2
	ror	eax, 2
	ror	eax, 2
	ror	eax, 2
	ror	eax, 2
	ror	eax, 2
	ror	eax, 2
	ror	eax, 2
	ror	eax, 2
	ror	eax, 2
	ror	eax, 2
	ror	eax, 2
	ror	eax, 2
	ror	eax, 2
	ror	eax, 2
	ror	eax, 2
	ror	eax, 2
	ror	eax, 2
	ror	eax, 2
	ror	eax, 2
	ror	eax, 2
	ror	eax, 2
	ror	eax, 2
	ror	eax, 2
	ror	eax, 2
	ror	eax, 2
	ror	eax, 2
	ror	eax, 2
	ror	eax, 2
	ror	eax, 2
	ror	eax, 2
	ror	eax, 2
	ror	eax, 2
	ror	eax, 2
	ror	eax, 2
	ror	eax, 2
	ror	eax, 2
	ror	eax, 2
	ror	eax, 2
	ror	eax, 2
	ror	eax, 2
	ror	eax, 2
	ror	eax, 2
	ror	eax, 2
	ror	eax, 2
	ror	eax, 2
	ror	eax, 2
	ror	eax, 2
	ror	eax, 2
	ror	eax, 2
	ror	eax, 2
	ror	eax, 2
	ror	eax, 2
	ror	eax, 2
	ror	eax, 2
	ror	eax, 2
	ror	eax, 2
	ror	eax, 2
	ror	eax, 2
	ror	eax, 2
	ror	eax, 2
	ror	eax, 2
	ror	eax, 2
	ror	eax, 2
	ror	eax, 2
	ror	eax, 2
	ror	eax, 2
	ror	eax, 2
	ror	eax, 2
	ror	eax, 2
	ror	eax, 2
	ror	eax, 2
	ror	eax, 2
	ror	eax, 2
	ror	eax, 2
	ror	eax, 2
	ror	eax, 2
	ror	eax, 2
	ror	eax, 2
	ror	eax, 2
	ror	eax, 2
	ror	eax, 2
	ror	eax, 2
	ror	eax, 2
	ror	eax, 2
	ror	eax, 2
	ror	eax, 2
	ror	eax, 2
	ror	eax, 2
	ror	eax, 2
	ror	eax, 2
	ror	eax, 2
	ror	eax, 2
	ror	eax, 2
	ror	eax, 2
	ror	eax, 2
	ror	eax, 2
	ror	eax, 2
	ror	eax, 2
	ror	eax, 2
	ror	eax, 2
	ror	eax, 2
	ror	eax, 2
	ror	eax, 2
	ror	eax, 2
	ror	eax, 2
	ror	eax, 2
	ror	eax, 2
	ror	eax, 2
	ror	eax, 2
	ror	eax, 2
	ror	eax, 2
	ror	eax, 2
	ror	eax, 2
	ror	eax, 2
	ror	eax, 2
	ror	eax, 2
	ror	eax, 2
	ror	eax, 2
	ror	eax, 2
	ror	eax, 2
	ror	eax, 2
	ror	eax, 2
	ror	eax, 2
	ror	eax, 2
	ror	eax, 2
	ror	eax, 2
	ror	eax, 2
	ror	eax, 2
	ror	eax, 2
	ror	eax, 2
	ror	eax, 2
	ror	eax, 2
	ror	eax, 2
	ror	eax, 2
	ror	eax, 2
	ror	eax, 2
	ror	eax, 2
	ror	eax, 2
	ror	eax, 2
	ror	eax, 2
	ror	eax, 2
	ror	eax, 2
	ror	eax, 2
	ror	eax, 2
	ror	eax, 2
	ror	eax, 2
	ror	eax, 2
	ror	eax, 2
	ror	eax, 2
	ror	eax, 2
	ror	eax, 2
	ror	eax, 2
	ror	eax, 2
	ror	eax, 2
	ror	eax, 2
	ror	eax, 2
	ror	eax, 2
	ror	eax, 2
	ror	eax, 2
	ror	eax, 2
	ror	eax, 2
	ror	eax, 2
	ror	eax, 2
	ror	eax, 2
	ror	eax, 2
	ror	eax, 2
	ror	eax, 2
	ror	eax, 2
	ror	eax, 2
	ror	eax, 2
	ror	eax, 2
	ror	eax, 2
	ror	eax, 2
	ror	eax, 2
	ror	eax, 2
	ror	eax, 2
	ror	eax, 2
	ror	eax, 2
	ror	eax, 2
	ror	eax, 2
	ror	eax, 2
	ror	eax, 2
	ror	eax, 2
	ror	eax, 2
	ror	eax, 2
	ror	eax, 2
	ror	eax, 2
	ror	eax, 2
	ror	eax, 2
	ror	eax, 2
	ror	eax, 2
	ror	eax, 2
	ror	eax, 2
	ror	eax, 2
	ror	eax, 2
	ror	eax, 2
	ror	eax, 2
	ror	eax, 2
	ror	eax, 2
	ror	eax, 2
	ror	eax, 2
	ror	eax, 2
	ror	eax, 2
	ror	eax, 2
	ror	eax, 2
	ror	eax, 2
	ror	eax, 2
	ror	eax, 2
	ror	eax, 2
	ror	eax, 2
	ror	eax, 2
	ror	eax, 2
	ror	eax, 2
	ror	eax, 2
	ror	eax, 2
	ror	eax, 2
	ror	eax, 2
	ror	eax, 2
	ror	eax, 2
	ror	eax, 2
	ror	eax, 2
	ror	eax, 2
	ror	eax, 2
	ror	eax, 2
	ror	eax, 2
	ror	eax, 2
	ror	eax, 2
	ror	eax, 2
	ror	eax, 2
	ror	eax, 2
	ror	eax, 2
	ror	eax, 2
	ror	eax, 2
	ror	eax, 2
	ror	eax, 2
	ror	eax, 2
	ror	eax, 2
	ror	eax, 2
	ror	eax, 2
	ror	eax, 2
	ror	eax, 2
	ror	eax, 2
	ror	eax, 2
	ror	eax, 2
	ror	eax, 2
	ror	eax, 2
	ror	eax, 2
	ror	eax, 2
	ror	eax, 2
	ror	eax, 2
	ror	eax, 2
	ror	eax, 2
	ror	eax, 2
	ror	eax, 2
	ror	eax, 2
	ror	eax, 2
	ror	eax, 2
	ror	eax, 2
	ror	eax, 2
	ror	eax, 2
	ror	eax, 2
	ror	eax, 2
	ror	eax, 2
	ror	eax, 2
	ror	eax, 2
	ror	eax, 2
	ror	eax, 2
	ror	eax, 2
	ror	eax, 2
	ror	eax, 2
	ror	eax, 2
	ror	eax, 2
	ror	eax, 2
	ror	eax, 2
	ror	eax, 2
	ror	eax, 2
	ror	eax, 2
	ror	eax, 2
	ror	eax, 2
	ror	eax, 2
	ror	eax, 2
	ror	eax, 2
	ror	eax, 2
	ror	eax, 2
	ror	eax, 2
	ror	eax, 2
	ror	eax, 2
	ror	eax, 2
	ror	eax, 2
	ror	eax, 2
	ror	eax, 2
	ror	eax, 2
	ror	eax, 2
	ror	eax, 2
	ror	eax, 2
	ror	eax, 2
	ror	eax, 2
	ror	eax, 2
	ror	eax, 2
	ror	eax, 2
	ror	eax, 2
	ror	eax, 2
	ror	eax, 2
	ror	eax, 2
	ror	eax, 2
	ror	eax, 2
	ror	eax, 2
	ror	eax, 2
	ror	eax, 2
	ror	eax, 2
	ror	eax, 2
	ror	eax, 2
	ror	eax, 2
	ror	eax, 2
	ror	eax, 2
	ror	eax, 2
	ror	eax, 2
	ror	eax, 2
	ror	eax, 2
	ror	eax, 2
	ror	eax, 2
	ror	eax, 2
	ror	eax, 2
	ror	eax, 2
	ror	eax, 2
	ror	eax, 2
	ror	eax, 2
	ror	eax, 2
	ror	eax, 2
	ror	eax, 2
	ror	eax, 2
	ror	eax, 2
	ror	eax, 2
	ror	eax, 2
	ror	eax, 2
	ror	eax, 2
	ror	eax, 2
	ror	eax, 2
	ror	eax, 2
	ror	eax, 2
	ror	eax, 2
	ror	eax, 2
	ror	eax, 2
	ror	eax, 2
	ror	eax, 2
	ror	eax, 2
	ror	eax, 2
	ror	eax, 2
	ror	eax, 2
	ror	eax, 2
	ror	eax, 2
	ror	eax, 2
	ror	eax, 2
	ror	eax, 2
	ror	eax, 2
	ror	eax, 2
	ror	eax, 2
	ror	eax, 2
	ror	eax, 2
	ror	eax, 2
	ror	eax, 2
	ror	eax, 2
	ror	eax, 2
	ror	eax, 2
	ror	eax, 2
	ror	eax, 2
	ror	eax, 2
	ror	eax, 2
	ror	eax, 2
	ror	eax, 2
	ror	eax, 2
	ror	eax, 2
	ror	eax, 2
	ror	eax, 2
	ror	eax, 2
	ror	eax, 2
	ror	eax, 2
	ror	eax, 2
	ror	eax, 2
	ror	eax, 2
	ror	eax, 2
	ror	eax, 2
	ror	eax, 2
	ror	eax, 2
	ror	eax, 2
	ror	eax, 2
	ror	eax, 2
	ror	eax, 2
	ror	eax, 2
	ror	eax, 2
	ror	eax, 2
	ror	eax, 2
	ror	eax, 2
	ror	eax, 2
	ror	eax, 2
	ror	eax, 2
	ror	eax, 2
	ror	eax, 2
	ror	eax, 2
	ror	eax, 2
	ror	eax, 2
	ror	eax, 2
	ror	eax, 2
	ror	eax, 2
	ror	eax, 2
	ror	eax, 2
	ror	eax, 2
	ror	eax, 2
	ror	eax, 2
	ror	eax, 2
	ror	eax, 2
	ror	eax, 2
	ror	eax, 2
	ror	eax, 2
	ror	eax, 2
	ror	eax, 2
	ror	eax, 2
	ror	eax, 2
	ror	eax, 2
	ror	eax, 2
	ror	eax, 2
	ror	eax, 2
	ror	eax, 2
	ror	eax, 2
	ror	eax, 2
	ror	eax, 2
	ror	eax, 2
	ror	eax, 2
	ror	eax, 2
	ror	eax, 2
	ror	eax, 2
	ror	eax, 2
	ror	eax, 2
	ror	eax, 2
	ror	eax, 2
	ror	eax, 2
	ror	eax, 2
	ror	eax, 2
	ror	eax, 2
	ror	eax, 2
	ror	eax, 2
	ror	eax, 2
	ror	eax, 2
	ror	eax, 2
	ror	eax, 2
	ror	eax, 2
	ror	eax, 2
	ror	eax, 2
	ror	eax, 2
	ror	eax, 2
	ror	eax, 2
	ror	eax, 2
	ror	eax, 2
	ror	eax, 2
	ror	eax, 2
	ror	eax, 2
	ror	eax, 2
	ror	eax, 2
	ror	eax, 2
	ror	eax, 2
	ror	eax, 2
	ror	eax, 2
	ror	eax, 2
	ror	eax, 2
	ror	eax, 2
	ror	eax, 2
	ror	eax, 2
	ror	eax, 2
	ror	eax, 2
	ror	eax, 2
	ror	eax, 2
	ror	eax, 2
	ror	eax, 2
	ror	eax, 2
	ror	eax, 2
	ror	eax, 2
	ror	eax, 2
	ror	eax, 2
	ror	eax, 2
	ror	eax, 2
	ror	eax, 2
	ror	eax, 2
	ror	eax, 2
	ror	eax, 2
	ror	eax, 2
	ror	eax, 2
	ror	eax, 2
	ror	eax, 2
	ror	eax, 2
	ror	eax, 2
	ror	eax, 2
	ror	eax, 2
	ror	eax, 2
	ror	eax, 2
	ror	eax, 2
	ror	eax, 2
	ror	eax, 2
	ror	eax, 2
	ror	eax, 2
	ror	eax, 2
	ror	eax, 2
	ror	eax, 2
	ror	eax, 2
	ror	eax, 2
	ror	eax, 2
	ror	eax, 2
	ror	eax, 2
	ror	eax, 2
	ror	eax, 2
	ror	eax, 2
	ror	eax, 2
	ror	eax, 2
	ror	eax, 2
	ror	eax, 2
	ror	eax, 2
	ror	eax, 2
	ror	eax, 2
	ror	eax, 2
	ror	eax, 2
	ror	eax, 2
	ror	eax, 2
	ror	eax, 2
	ror	eax, 2
	ror	eax, 2
	ror	eax, 2
	ror	eax, 2
	ror	eax, 2
	ror	eax, 2
	ror	eax, 2
	ror	eax, 2
	ror	eax, 2
	ror	eax, 2
	ror	eax, 2
	ror	eax, 2
	ror	eax, 2
	ror	eax, 2
	ror	eax, 2
	ror	eax, 2
	ror	eax, 2
	ror	eax, 2
	ror	eax, 2
	ror	eax, 2
	ror	eax, 2
	ror	eax, 2
	ror	eax, 2
	ror	eax, 2
	ror	eax, 2
	ror	eax, 2
	ror	eax, 2
	ror	eax, 2
	ror	eax, 2
	ror	eax, 2
	ror	eax, 2
	ror	eax, 2
	ror	eax, 2
	ror	eax, 2
	ror	eax, 2
	ror	eax, 2
	ror	eax, 2
	ror	eax, 2
	ror	eax, 2
	ror	eax, 2
	ror	eax, 2
	ror	eax, 2
	ror	eax, 2
	ror	eax, 2
	ror	eax, 2
	ror	eax, 2
	ror	eax, 2
	ror	eax, 2
	ror	eax, 2
	ror	eax, 2
	ror	eax, 2
	ror	eax, 2
	ror	eax, 2
	ror	eax, 2
	ror	eax, 2
	ror	eax, 2
	ror	eax, 2
	ror	eax, 2
	ror	eax, 2
	ror	eax, 2
	ror	eax, 2
	ror	eax, 2
	ror	eax, 2
	ror	eax, 2
	ror	eax, 2
	ror	eax, 2
	ror	eax, 2
	ror	eax, 2
	ror	eax, 2
	ror	eax, 2
	ror	eax, 2
	ror	eax, 2
	ror	eax, 2
	ror	eax, 2
	ror	eax, 2
	ror	eax, 2
	ror	eax, 2
	ror	eax, 2
	ror	eax, 2
	ror	eax, 2
	ror	eax, 2
	ror	eax, 2
	ror	eax, 2
	ror	eax, 2
	ror	eax, 2
	ror	eax, 2
	ror	eax, 2
	ror	eax, 2
	ror	eax, 2
	ror	eax, 2
	ror	eax, 2
	ror	eax, 2
	ror	eax, 2
	ror	eax, 2
	ror	eax, 2
	ror	eax, 2
	ror	eax, 2
	ror	eax, 2
	ror	eax, 2
	ror	eax, 2
	ror	eax, 2
	ror	eax, 2
	ror	eax, 2
	ror	eax, 2
	ror	eax, 2
	ror	eax, 2
	ror	eax, 2
	ror	eax, 2
	ror	eax, 2
	ror	eax, 2
	ror	eax, 2
	ror	eax, 2
	ror	eax, 2
	ror	eax, 2
	ror	eax, 2
	ror	eax, 2
	ror	eax, 2
	ror	eax, 2
	ror	eax, 2
	ror	eax, 2
	ror	eax, 2
	ror	eax, 2
	ror	eax, 2
	ror	eax, 2
	ror	eax, 2
	ror	eax, 2
	ror	eax, 2
	ror	eax, 2
	ror	eax, 2
	ror	eax, 2
	ror	eax, 2
	ror	eax, 2
	ror	eax, 2
	ror	eax, 2
	ror	eax, 2
	ror	eax, 2
	ror	eax, 2
	ror	eax, 2
	ror	eax, 2
	ror	eax, 2
	ror	eax, 2
	ror	eax, 2
	ror	eax, 2
	ror	eax, 2
	ror	eax, 2
	ror	eax, 2
	ror	eax, 2
	ror	eax, 2
	ror	eax, 2
	ror	eax, 2
	ror	eax, 2
	ror	eax, 2
	ror	eax, 2
	ror	eax, 2
	ror	eax, 2
	ror	eax, 2
	ror	eax, 2
	ror	eax, 2
	ror	eax, 2
	ror	eax, 2
	ror	eax, 2
	ror	eax, 2
	ror	eax, 2
	ror	eax, 2
	ror	eax, 2
	ror	eax, 2
	ror	eax, 2
	ror	eax, 2
	ror	eax, 2
	ror	eax, 2
	ror	eax, 2
	ror	eax, 2
	ror	eax, 2
	ror	eax, 2
	ror	eax, 2
	ror	eax, 2
	ror	eax, 2
	ror	eax, 2
	ror	eax, 2
	ror	eax, 2
	ror	eax, 2
	ror	eax, 2
	ror	eax, 2
	ror	eax, 2
	ror	eax, 2
	ror	eax, 2
	ror	eax, 2
	ror	eax, 2
	ror	eax, 2
	ror	eax, 2
	ror	eax, 2
	ror	eax, 2
	ror	eax, 2
	ror	eax, 2
	ror	eax, 2
	ror	eax, 2
	ror	eax, 2
	ror	eax, 2
	ror	eax, 2
	ror	eax, 2
	ror	eax, 2
	ror	eax, 2
	ror	eax, 2
	ror	eax, 2
	ror	eax, 2
	ror	eax, 2
	ror	eax, 2
	ror	eax, 2
	ror	eax, 2
	ror	eax, 2
	ror	eax, 2
	ror	eax, 2
	ror	eax, 2
	ror	eax, 2
	ror	eax, 2
	ror	eax, 2
	ror	eax, 2
	ror	eax, 2
	ror	eax, 2
	ror	eax, 2
	ror	eax, 2
	ror	eax, 2
	ror	eax, 2
	ror	eax, 2
	ror	eax, 2
	ror	eax, 2
	ror	eax, 2
	ror	eax, 2
	ror	eax, 2
	ror	eax, 2
	ror	eax, 2
	ror	eax, 2
	ror	eax, 2
	ror	eax, 2
	ror	eax, 2
	ror	eax, 2
	ror	eax, 2
	ror	eax, 2
	ror	eax, 2
	ror	eax, 2
	ror	eax, 2
	ror	eax, 2
	ror	eax, 2
	ror	eax, 2
	ror	eax, 2
	ror	eax, 2
	ror	eax, 2
	ror	eax, 2
	ror	eax, 2
	ror	eax, 2
	ror	eax, 2
	ror	eax, 2
	ror	eax, 2
	ror	eax, 2
	ror	eax, 2
	ror	eax, 2
	ror	eax, 2
	ror	eax, 2
	ror	eax, 2
	ror	eax, 2
	ror	eax, 2
	ror	eax, 2
	ror	eax, 2
	ror	eax, 2
	ror	eax, 2
	ror	eax, 2
	ror	eax, 2
	ror	eax, 2
	ror	eax, 2
	ror	eax, 2
	ror	eax, 2
	ror	eax, 2
	ror	eax, 2
	ror	eax, 2
	ror	eax, 2
	ror	eax, 2
	ror	eax, 2
	ror	eax, 2
	ror	eax, 2
	ror	eax, 2
	ror	eax, 2
	ror	eax, 2
	ror	eax, 2
	ror	eax, 2
	ror	eax, 2
	ror	eax, 2
	ror	eax, 2
	ror	eax, 2
	ror	eax, 2
	ror	eax, 2
	ror	eax, 2
	ror	eax, 2
	ror	eax, 2
	ror	eax, 2
	ror	eax, 2
	ror	eax, 2
	ror	eax, 2
	ror	eax, 2
	ror	eax, 2
	ror	eax, 2
	ror	eax, 2
	ror	eax, 2
	ror	eax, 2
	ror	eax, 2
	ror	eax, 2
	ror	eax, 2
	ror	eax, 2
	ror	eax, 2
	ror	eax, 2
	ror	eax, 2
	ror	eax, 2
	ror	eax, 2
	ror	eax, 2
	ror	eax, 2
	ror	eax, 2
	ror	eax, 2
	ror	eax, 2
	ror	eax, 2
	ror	eax, 2
	ror	eax, 2
	ror	eax, 2
	ror	eax, 2
	ror	eax, 2
	ror	eax, 2
	ror	eax, 2
	ror	eax, 2
	ror	eax, 2
	ror	eax, 2
	ror	eax, 2
	ror	eax, 2
	ror	eax, 2
	ror	eax, 2
	ror	eax, 2
	ror	eax, 2
	ror	eax, 2
	ror	eax, 2
	ror	eax, 2
	ror	eax, 2
	ror	eax, 2
	ror	eax, 2
	ror	eax, 2
	ror	eax, 2
	ror	eax, 2
	ror	eax, 2
	ror	eax, 2
	ror	eax, 2
	ror	eax, 2
	ror	eax, 2
	ror	eax, 2
	ror	eax, 2
	ror	eax, 2
	ror	eax, 2
	ror	eax, 2
	ror	eax, 2
	ror	eax, 2
	ror	eax, 2
	ror	eax, 2
	ror	eax, 2
	ror	eax, 2
	ror	eax, 2
	ror	eax, 2
	ror	eax, 2
	ror	eax, 2
	ror	eax, 2
	ror	eax, 2
	ror	eax, 2
	ror	eax, 2
	ror	eax, 2
	ror	eax, 2
	ror	eax, 2
	ror	eax, 2
	ror	eax, 2
	ror	eax, 2
	ror	eax, 2
	ror	eax, 2
	ror	eax, 2
	ror	eax, 2
	ror	eax, 2
	ror	eax, 2
	ror	eax, 2
	ror	eax, 2
	ror	eax, 2
	ror	eax, 2
	ror	eax, 2
	ror	eax, 2
	ror	eax, 2
	ror	eax, 2
	ror	eax, 2
	ror	eax, 2
	ror	eax, 2
	ror	eax, 2
	ror	eax, 2
	ror	eax, 2
	ror	eax, 2
	ror	eax, 2
	ror	eax, 2
	ror	eax, 2
	ror	eax, 2
	ror	eax, 2
	ror	eax, 2
	ror	eax, 2
	ror	eax, 2
	ror	eax, 2
	ror	eax, 2
	ror	eax, 2
	ror	eax, 2
	ror	eax, 2
	ror	eax, 2
	ror	eax, 2
	ror	eax, 2
	ror	eax, 2
	ror	eax, 2
	ror	eax, 2
	ror	eax, 2
	ror	eax, 2
	ror	eax, 2
	ror	eax, 2
	ror	eax, 2
	ror	eax, 2
	ror	eax, 2
	ror	eax, 2
	ror	eax, 2
	ror	eax, 2
	ror	eax, 2
	ror	eax, 2
	ror	eax, 2
	ror	eax, 2
	ror	eax, 2
	ror	eax, 2
	ror	eax, 2
	ror	eax, 2
	ror	eax, 2
	ror	eax, 2
	ror	eax, 2
	ror	eax, 2
	ror	eax, 2
	ror	eax, 2
	ror	eax, 2
	ror	eax, 2
	ror	eax, 2
	ror	eax, 2
	ror	eax, 2
	ror	eax, 2
	ror	eax, 2
	ror	eax, 2
	ror	eax, 2
	ror	eax, 2
	ror	eax, 2
	ror	eax, 2
	ror	eax, 2
	ror	eax, 2
	ror	eax, 2
	ror	eax, 2
	ror	eax, 2
	ror	eax, 2
	ror	eax, 2
	ror	eax, 2
	ror	eax, 2
	ror	eax, 2
	ror	eax, 2
	ror	eax, 2
	ror	eax, 2
	ror	eax, 2
	ror	eax, 2
	ror	eax, 2
	ror	eax, 2
	ror	eax, 2
	ror	eax, 2
	ror	eax, 2
	ror	eax, 2
	ror	eax, 2
	ror	eax, 2
	ror	eax, 2
	ror	eax, 2
	ror	eax, 2
	ror	eax, 2
	ror	eax, 2
	ror	eax, 2
	ror	eax, 2
	ror	eax, 2
	ror	eax, 2
	ror	eax, 2
	ror	eax, 2
	ror	eax, 2
	ror	eax, 2
	ror	eax, 2
	ror	eax, 2
	ror	eax, 2
	ror	eax, 2
	ror	eax, 2
	ror	eax, 2
	ror	eax, 2
	ror	eax, 2
	ror	eax, 2
	ror	eax, 2
	ror	eax, 2
	ror	eax, 2
	ror	eax, 2
	ror	eax, 2
	ror	eax, 2
	ror	eax, 2
	ror	eax, 2
	ror	eax, 2
	ror	eax, 2
	ror	eax, 2
	ror	eax, 2
	ror	eax, 2
	ror	eax, 2
	ror	eax, 2
	ror	eax, 2
	ror	eax, 2
	ror	eax, 2
	ror	eax, 2
	ror	eax, 2
	ror	eax, 2
	ror	eax, 2
	ror	eax, 2
	ror	eax, 2
	ror	eax, 2
	ror	eax, 2
	ror	eax, 2
	ror	eax, 2
	ror	eax, 2
	ror	eax, 2
	ror	eax, 2
	ror	eax, 2
	ror	eax, 2
	ror	eax, 2
	ror	eax, 2
	ror	eax, 2
	ror	eax, 2
	ror	eax, 2
	ror	eax, 2
	ror	eax, 2
	ror	eax, 2
	ror	eax, 2
	ror	eax, 2
	ror	eax, 2
	ror	eax, 2
	ror	eax, 2
	ror	eax, 2
	ror	eax, 2
	ror	eax, 2
	ror	eax, 2
	ror	eax, 2
	ror	eax, 2
	ror	eax, 2
	ror	eax, 2
	ror	eax, 2
	ror	eax, 2
	ror	eax, 2
	ror	eax, 2
	ror	eax, 2
	ror	eax, 2
	ror	eax, 2
	ror	eax, 2
	ror	eax, 2
	ror	eax, 2
	ror	eax, 2
	ror	eax, 2
	ror	eax, 2
	ror	eax, 2
	ror	eax, 2
	ror	eax, 2
	ror	eax, 2
	ror	eax, 2
	ror	eax, 2
	ror	eax, 2
	ror	eax, 2
	ror	eax, 2
	ror	eax, 2
	ror	eax, 2
	ror	eax, 2
	ror	eax, 2
	ror	eax, 2
	ror	eax, 2
	ror	eax, 2
	ror	eax, 2
	ror	eax, 2
	ror	eax, 2
	ror	eax, 2
	ror	eax, 2
	ror	eax, 2
	ror	eax, 2
	ror	eax, 2
	ror	eax, 2
	ror	eax, 2
	ror	eax, 2
	ror	eax, 2
	ror	eax, 2
	ror	eax, 2
	ror	eax, 2
	ror	eax, 2
	ror	eax, 2
	ror	eax, 2
	ror	eax, 2
	ror	eax, 2
	ror	eax, 2
	ror	eax, 2
	ror	eax, 2
	ror	eax, 2
	ror	eax, 2
	ror	eax, 2
	ror	eax, 2
	ror	eax, 2
	ror	eax, 2
	ror	eax, 2
	ror	eax, 2
	ror	eax, 2
	ror	eax, 2
	ror	eax, 2
	ror	eax, 2
	ror	eax, 2
	ror	eax, 2
	ror	eax, 2
	ror	eax, 2
	ror	eax, 2
	ror	eax, 2
	ror	eax, 2
	ror	eax, 2
	ror	eax, 2
	ror	eax, 2
	ror	eax, 2
	ror	eax, 2
	ror	eax, 2
	ror	eax, 2
	ror	eax, 2
	ror	eax, 2
	ror	eax, 2
	ror	eax, 2
	ror	eax, 2
	ror	eax, 2
	ror	eax, 2
	ror	eax, 2
	ror	eax, 2
	ror	eax, 2
	ror	eax, 2
	ror	eax, 2
	ror	eax, 2
	ror	eax, 2
	ror	eax, 2
	ror	eax, 2
	ror	eax, 2
	ror	eax, 2
	ror	eax, 2
	ror	eax, 2
	ror	eax, 2
	ror	eax, 2
	ror	eax, 2
	ror	eax, 2
	ror	eax, 2
	ror	eax, 2
	ror	eax, 2
	ror	eax, 2
	ror	eax, 2
	ror	eax, 2
	ror	eax, 2
	ror	eax, 2
	ror	eax, 2
	ror	eax, 2
	ror	eax, 2
	ror	eax, 2
	ror	eax, 2
	ror	eax, 2
	ror	eax, 2
	ror	eax, 2
	ror	eax, 2
	ror	eax, 2
	ror	eax, 2
	ror	eax, 2
	ror	eax, 2
	ror	eax, 2
	ror	eax, 2
	ror	eax, 2
	ror	eax, 2
	ror	eax, 2
	ror	eax, 2
	ror	eax, 2
	ror	eax, 2
	ror	eax, 2
	ror	eax, 2
	ror	eax, 2
	ror	eax, 2
	ror	eax, 2
	ror	eax, 2
	ror	eax, 2
	ror	eax, 2
	ror	eax, 2
	ror	eax, 2
	ror	eax, 2
	ror	eax, 2
	ror	eax, 2
	ror	eax, 2
	ror	eax, 2
	ror	eax, 2
	ror	eax, 2
	ror	eax, 2
	ror	eax, 2
	ror	eax, 2
	ror	eax, 2
	ror	eax, 2
	ror	eax, 2
	ror	eax, 2
	ror	eax, 2
	ror	eax, 2
	ror	eax, 2
	ror	eax, 2
	ror	eax, 2
	ror	eax, 2
	ror	eax, 2
	ror	eax, 2
	ror	eax, 2
	ror	eax, 2
	ror	eax, 2
	ror	eax, 2
	ror	eax, 2
	ror	eax, 2
	ror	eax, 2
	ror	eax, 2
	ror	eax, 2
	ror	eax, 2
	ror	eax, 2
	ror	eax, 2
	ror	eax, 2
	ror	eax, 2
	ror	eax, 2
	ror	eax, 2
	ror	eax, 2
	ror	eax, 2
	ror	eax, 2
	ror	eax, 2
	ror	eax, 2
	ror	eax, 2
	ror	eax, 2
	ror	eax, 2
	ror	eax, 2
	ror	eax, 2
	ror	eax, 2
	ror	eax, 2
	ror	eax, 2
	ror	eax, 2
	ror	eax, 2
	ror	eax, 2
	ror	eax, 2
	ror	eax, 2
	ror	eax, 2
	ror	eax, 2
	ror	eax, 2
	ror	eax, 2
	ror	eax, 2
	ror	eax, 2
	ror	eax, 2
	ror	eax, 2
	ror	eax, 2
	ror	eax, 2
	ror	eax, 2
	ror	eax, 2
	ror	eax, 2
	ror	eax, 2
	ror	eax, 2
	ror	eax, 2
	ror	eax, 2
	ror	eax, 2
	ror	eax, 2
	ror	eax, 2
	ror	eax, 2
	ror	eax, 2
	ror	eax, 2
	ror	eax, 2
	ror	eax, 2
	ror	eax, 2
	ror	eax, 2
	ror	eax, 2
	ror	eax, 2
	ror	eax, 2
	ror	eax, 2
	ror	eax, 2
	ror	eax, 2
	ror	eax, 2
	ror	eax, 2
	ror	eax, 2
	ror	eax, 2
	ror	eax, 2
	ror	eax, 2
	ror	eax, 2
	ror	eax, 2
	ror	eax, 2
	ror	eax, 2
	ror	eax, 2
	ror	eax, 2
	ror	eax, 2
	ror	eax, 2
	ror	eax, 2
	ror	eax, 2
	ror	eax, 2
	ror	eax, 2
	ror	eax, 2
	ror	eax, 2
	ror	eax, 2
	ror	eax, 2
	ror	eax, 2
	ror	eax, 2
	ror	eax, 2
	ror	eax, 2
	ror	eax, 2
	ror	eax, 2
	ror	eax, 2
	ror	eax, 2
	ror	eax, 2
	ror	eax, 2
	ror	eax, 2
	ror	eax, 2
	ror	eax, 2
	ror	eax, 2
	ror	eax, 2
	ror	eax, 2
	ror	eax, 2
	ror	eax, 2
	ror	eax, 2
	ror	eax, 2
	ror	eax, 2
	ror	eax, 2
	ror	eax, 2
	ror	eax, 2
	ror	eax, 2
	ror	eax, 2
	ror	eax, 2
	ror	eax, 2
	ror	eax, 2
	ror	eax, 2
	ror	eax, 2
	ror	eax, 2
	ror	eax, 2
	ror	eax, 2
	ror	eax, 2
	ror	eax, 2
	ror	eax, 2
	ror	eax, 2
	ror	eax, 2
	ror	eax, 2
	ror	eax, 2
	ror	eax, 2
	ror	eax, 2
	ror	eax, 2
	ror	eax, 2
	ror	eax, 2
	ror	eax, 2
	ror	eax, 2
	ror	eax, 2
	ror	eax, 2
	ror	eax, 2
	ror	eax, 2
	ror	eax, 2
	ror	eax, 2
	ror	eax, 2
	ror	eax, 2
	ror	eax, 2
	ror	eax, 2
	ror	eax, 2
	ror	eax, 2
	ror	eax, 2
	ror	eax, 2
	ror	eax, 2
	ror	eax, 2
	ror	eax, 2
	ror	eax, 2
	ror	eax, 2
	ror	eax, 2
	ror	eax, 2
	ror	eax, 2
	ror	eax, 2
	ror	eax, 2
	ror	eax, 2
	ror	eax, 2
	ror	eax, 2
	ror	eax, 2
	ror	eax, 2
	ror	eax, 2
	ror	eax, 2
	ror	eax, 2
	ror	eax, 2
	ror	eax, 2
	ror	eax, 2
	ror	eax, 2
	ror	eax, 2
	ror	eax, 2
	ror	eax, 2
	ror	eax, 2
	ror	eax, 2
	ror	eax, 2
	ror	eax, 2
	ror	eax, 2
	ror	eax, 2
	ror	eax, 2
	ror	eax, 2
	ror	eax, 2
	ror	eax, 2
	ror	eax, 2
	ror	eax, 2
	ror	eax, 2
	ror	eax, 2
	ror	eax, 2
	ror	eax, 2
	ror	eax, 2
	ror	eax, 2
	ror	eax, 2
	ror	eax, 2
	ror	eax, 2
	ror	eax, 2
	ror	eax, 2
	ror	eax, 2
	ror	eax, 2
	ror	eax, 2
	ror	eax, 2
	ror	eax, 2
	ror	eax, 2
	ror	eax, 2
	ror	eax, 2
	ror	eax, 2
	ror	eax, 2
	ror	eax, 2
	ror	eax, 2
	ror	eax, 2
	ror	eax, 2
	ror	eax, 2
	ror	eax, 2
	ror	eax, 2
	ror	eax, 2
	ror	eax, 2
	ror	eax, 2
	ror	eax, 2
	ror	eax, 2
	ror	eax, 2
	ror	eax, 2
	ror	eax, 2
	ror	eax, 2
	ror	eax, 2
	ror	eax, 2
	ror	eax, 2
	ror	eax, 2
	ror	eax, 2
	ror	eax, 2
	ror	eax, 2
	ror	eax, 2
	ror	eax, 2
	ror	eax, 2
	ror	eax, 2
	ror	eax, 2
	ror	eax, 2
	ror	eax, 2
	ror	eax, 2
	ror	eax, 2
	ror	eax, 2
	ror	eax, 2
	ror	eax, 2
	ror	eax, 2
	ror	eax, 2
	ror	eax, 2
	ror	eax, 2
	ror	eax, 2
	ror	eax, 2
	ror	eax, 2
	ror	eax, 2
	ror	eax, 2
	ror	eax, 2
	ror	eax, 2
	ror	eax, 2
	ror	eax, 2
	ror	eax, 2
	ror	eax, 2
	ror	eax, 2
	ror	eax, 2
	ror	eax, 2
	ror	eax, 2
	ror	eax, 2
	ror	eax, 2
	ror	eax, 2
	ror	eax, 2
	ror	eax, 2
	ror	eax, 2
	ror	eax, 2
	ror	eax, 2
	ror	eax, 2
	ror	eax, 2
	ror	eax, 2
	ror	eax, 2
	ror	eax, 2
	ror	eax, 2
	ror	eax, 2
	ror	eax, 2
	ror	eax, 2
	ror	eax, 2
	ror	eax, 2
	ror	eax, 2
	ror	eax, 2
	ror	eax, 2
	ror	eax, 2
	ror	eax, 2
	ror	eax, 2
	ror	eax, 2
	ror	eax, 2
	ror	eax, 2
	ror	eax, 2
	ror	eax, 2
	ror	eax, 2
	ror	eax, 2
	ror	eax, 2
	ror	eax, 2
	ror	eax, 2
	ror	eax, 2
	ror	eax, 2
	ror	eax, 2
	ror	eax, 2
	ror	eax, 2
	ror	eax, 2
	ror	eax, 2
	ror	eax, 2
	ror	eax, 2
	ror	eax, 2
	ror	eax, 2
	ror	eax, 2
	ror	eax, 2
	ror	eax, 2
	ror	eax, 2
	ror	eax, 2
	ror	eax, 2
	ror	eax, 2
	ror	eax, 2
	ror	eax, 2
	ror	eax, 2
	ror	eax, 2
	ror	eax, 2
	ror	eax, 2
	ror	eax, 2
	ror	eax, 2
	ror	eax, 2
	ror	eax, 2
	ror	eax, 2
	ror	eax, 2
	ror	eax, 2
	ror	eax, 2
	ror	eax, 2
	ror	eax, 2
	ror	eax, 2
	ror	eax, 2
	ror	eax, 2
	ror	eax, 2
	ror	eax, 2
	ror	eax, 2
	ror	eax, 2
	ror	eax, 2
	ror	eax, 2
	ror	eax, 2
	ror	eax, 2
	ror	eax, 2
	ror	eax, 2
	ror	eax, 2
	ror	eax, 2
	ror	eax, 2
	ror	eax, 2
	ror	eax, 2
	ror	eax, 2
	ror	eax, 2
	ror	eax, 2
	ror	eax, 2
	ror	eax, 2
	ror	eax, 2
	ror	eax, 2
	ror	eax, 2
	ror	eax, 2
	ror	eax, 2
	ror	eax, 2
	ror	eax, 2
	ror	eax, 2
	ror	eax, 2
	ror	eax, 2
	ror	eax, 2
	ror	eax, 2
	ror	eax, 2
	ror	eax, 2
	ror	eax, 2
	ror	eax, 2
	ror	eax, 2
	ror	eax, 2
	ror	eax, 2
	ror	eax, 2
	ror	eax, 2
	ror	eax, 2
	ror	eax, 2
	ror	eax, 2
	ror	eax, 2
	ror	eax, 2
	ror	eax, 2
	ror	eax, 2
	ror	eax, 2
	ror	eax, 2
	ror	eax, 2
	ror	eax, 2
	ror	eax, 2
	ror	eax, 2
	ror	eax, 2
	ror	eax, 2
	ror	eax, 2
	ror	eax, 2
	ror	eax, 2
	ror	eax, 2
	ror	eax, 2
	ror	eax, 2
	ror	eax, 2
	ror	eax, 2
	ror	eax, 2
	ror	eax, 2
	ror	eax, 2
	ror	eax, 2
	ror	eax, 2
	ror	eax, 2
	ror	eax, 2
	ror	eax, 2
	ror	eax, 2
	ror	eax, 2
	ror	eax, 2
	ror	eax, 2
	ror	eax, 2
	ror	eax, 2
	ror	eax, 2
	ror	eax, 2
	ror	eax, 2
	ror	eax, 2
	ror	eax, 2
	ror	eax, 2
	ror	eax, 2
	ror	eax, 2
	ror	eax, 2
	ror	eax, 2
	ror	eax, 2
	ror	eax, 2
	ror	eax, 2
	ror	eax, 2
	ror	eax, 2
	ror	eax, 2
	ror	eax, 2
	ror	eax, 2
	ror	eax, 2
	ror	eax, 2
	ror	eax, 2
	ror	eax, 2
	ror	eax, 2
	ror	eax, 2
	ror	eax, 2
	ror	eax, 2
	ror	eax, 2
	ror	eax, 2
	ror	eax, 2
	ror	eax, 2
	ror	eax, 2
	ror	eax, 2
	ror	eax, 2
	ror	eax, 2
	ror	eax, 2
	ror	eax, 2
	ror	eax, 2
	ror	eax, 2
	ror	eax, 2
	ror	eax, 2
	ror	eax, 2
	ror	eax, 2
	ror	eax, 2
	ror	eax, 2
	ror	eax, 2
	ror	eax, 2
	ror	eax, 2
	ror	eax, 2
	ror	eax, 2
	ror	eax, 2
	ror	eax, 2
	ror	eax, 2
	ror	eax, 2
	ror	eax, 2
	ror	eax, 2
	ror	eax, 2
	ror	eax, 2
	ror	eax, 2
	ror	eax, 2
	ror	eax, 2
	ror	eax, 2
	ror	eax, 2
	ror	eax, 2
	ror	eax, 2
	ror	eax, 2
	ror	eax, 2
	ror	eax, 2
	ror	eax, 2
	ror	eax, 2
	ror	eax, 2
	ror	eax, 2
	ror	eax, 2
	ror	eax, 2
	ror	eax, 2
	ror	eax, 2
	ror	eax, 2
	ror	eax, 2
	ror	eax, 2
	ror	eax, 2
	ror	eax, 2
	ror	eax, 2
	ror	eax, 2
	ror	eax, 2
	ror	eax, 2
	ror	eax, 2
	ror	eax, 2
	ror	eax, 2
	ror	eax, 2
	ror	eax, 2
	ror	eax, 2
	ror	eax, 2
	ror	eax, 2
	ror	eax, 2
	ror	eax, 2
	ror	eax, 2
	ror	eax, 2
	ror	eax, 2
	ror	eax, 2
	ror	eax, 2
	ror	eax, 2
	ror	eax, 2
	ror	eax, 2
	ror	eax, 2
	ror	eax, 2
	ror	eax, 2
	ror	eax, 2
	ror	eax, 2
	ror	eax, 2
	ror	eax, 2
	ror	eax, 2
	ror	eax, 2
	ror	eax, 2
	ror	eax, 2
	ror	eax, 2
	ror	eax, 2
	ror	eax, 2
	ror	eax, 2
	ror	eax, 2
	ror	eax, 2
	ror	eax, 2
	ror	eax, 2
	ror	eax, 2
	ror	eax, 2
	ror	eax, 2
	ror	eax, 2
	ror	eax, 2
	ror	eax, 2
	ror	eax, 2
	ror	eax, 2
	ror	eax, 2
	ror	eax, 2
	ror	eax, 2
	ror	eax, 2
	ror	eax, 2
	ror	eax, 2
	ror	eax, 2
	ror	eax, 2
	ror	eax, 2
	ror	eax, 2
	ror	eax, 2
	ror	eax, 2
	ror	eax, 2
	ror	eax, 2
	ror	eax, 2
	ror	eax, 2
	ror	eax, 2
	ror	eax, 2
	ror	eax, 2
	ror	eax, 2
	ror	eax, 2
	ror	eax, 2
	ror	eax, 2
	ror	eax, 2
	ror	eax, 2
	ror	eax, 2
	ror	eax, 2
	ror	eax, 2
	ror	eax, 2
	ror	eax, 2
	ror	eax, 2
	ror	eax, 2
	ror	eax, 2
	ror	eax, 2
	ror	eax, 2
	ror	eax, 2
	ror	eax, 2
	ror	eax, 2
	ror	eax, 2
	ror	eax, 2
	ror	eax, 2
	ror	eax, 2
	ror	eax, 2
	ror	eax, 2
	ror	eax, 2
	ror	eax, 2
	ror	eax, 2
	ror	eax, 2
	ror	eax, 2
	ror	eax, 2
	ror	eax, 2
	ror	eax, 2
	ror	eax, 2
	ror	eax, 2
	ror	eax, 2
	ror	eax, 2
	ror	eax, 2
	ror	eax, 2
	ror	eax, 2
	ror	eax, 2
	ror	eax, 2
	ror	eax, 2
	ror	eax, 2
	ror	eax, 2
	ror	eax, 2
	ror	eax, 2
	ror	eax, 2
	ror	eax, 2
	ror	eax, 2
	ror	eax, 2
	ror	eax, 2
	ror	eax, 2
	ror	eax, 2
	ror	eax, 2
	ror	eax, 2
	ror	eax, 2
	ror	eax, 2
	ror	eax, 2
	ror	eax, 2
	ror	eax, 2
	ror	eax, 2
	ror	eax, 2
	ror	eax, 2
	ror	eax, 2
	ror	eax, 2
	ror	eax, 2
	ror	eax, 2
	ror	eax, 2
	ror	eax, 2
	ror	eax, 2
	ror	eax, 2
	ror	eax, 2
	ror	eax, 2
	ror	eax, 2
	ror	eax, 2
	ror	eax, 2
	ror	eax, 2
	ror	eax, 2
	ror	eax, 2
	ror	eax, 2
	ror	eax, 2
	ror	eax, 2
	ror	eax, 2
	ror	eax, 2
	ror	eax, 2
	ror	eax, 2
	ror	eax, 2
	ror	eax, 2
	ror	eax, 2
	ror	eax, 2
	ror	eax, 2
	ror	eax, 2
	ror	eax, 2
	ror	eax, 2
	ror	eax, 2
	ror	eax, 2
	ror	eax, 2
	ror	eax, 2
	ror	eax, 2
	ror	eax, 2
	ror	eax, 2
	ror	eax, 2
	ror	eax, 2
	ror	eax, 2
	ror	eax, 2
	ror	eax, 2
	ror	eax, 2
	ror	eax, 2
	ror	eax, 2
	ror	eax, 2
	ror	eax, 2
	ror	eax, 2
	ror	eax, 2
	ror	eax, 2
	ror	eax, 2
	ror	eax, 2
	ror	eax, 2
	ror	eax, 2
	ror	eax, 2
	ror	eax, 2
	ror	eax, 2
	ror	eax, 2
	ror	eax, 2
	ror	eax, 2
	ror	eax, 2
	ror	eax, 2
	ror	eax, 2
	ror	eax, 2
	ror	eax, 2
	ror	eax, 2
	ror	eax, 2
	ror	eax, 2
	ror	eax, 2
	ror	eax, 2
	ror	eax, 2
	ror	eax, 2
	ror	eax, 2
	ror	eax, 2
	ror	eax, 2
	ror	eax, 2
	ror	eax, 2
	ror	eax, 2
	ror	eax, 2
	ror	eax, 2
	ror	eax, 2
	ror	eax, 2
	ror	eax, 2
	ror	eax, 2
	ror	eax, 2
	ror	eax, 2
	ror	eax, 2
	ror	eax, 2
	ror	eax, 2
	ror	eax, 2
	ror	eax, 2
	ror	eax, 2
	ror	eax, 2
	ror	eax, 2
	ror	eax, 2
	ror	eax, 2
	ror	eax, 2
	ror	eax, 2
	ror	eax, 2
	ror	eax, 2
	ror	eax, 2
	ror	eax, 2
	ror	eax, 2
	ror	eax, 2
	ror	eax, 2
	ror	eax, 2
	ror	eax, 2
	ror	eax, 2
	ror	eax, 2
	ror	eax, 2
	ror	eax, 2
	ror	eax, 2
	ror	eax, 2
	ror	eax, 2
	ror	eax, 2
	ror	eax, 2
	ror	eax, 2
	ror	eax, 2
	ror	eax, 2
	ror	eax, 2
	ror	eax, 2
	ror	eax, 2
	ror	eax, 2
	ror	eax, 2
	ror	eax, 2
	ror	eax, 2
	ror	eax, 2
	ror	eax, 2
	ror	eax, 2
	ror	eax, 2
	ror	eax, 2
	ror	eax, 2
	ror	eax, 2
	ror	eax, 2
	ror	eax, 2
	ror	eax, 2
	ror	eax, 2
	ror	eax, 2
	ror	eax, 2
	ror	eax, 2
	ror	eax, 2
	ror	eax, 2
	ror	eax, 2
	ror	eax, 2
	ror	eax, 2
	ror	eax, 2
	ror	eax, 2
	ror	eax, 2
	ror	eax, 2
	ror	eax, 2
	ror	eax, 2
	ror	eax, 2
	ror	eax, 2
	ror	eax, 2
	ror	eax, 2
	ror	eax, 2
	ror	eax, 2
	ror	eax, 2
	ror	eax, 2
	ror	eax, 2
	ror	eax, 2
	ror	eax, 2
	ror	eax, 2
	ror	eax, 2
	ror	eax, 2
	ror	eax, 2
	ror	eax, 2
	ror	eax, 2
	ror	eax, 2
	ror	eax, 2
	ror	eax, 2
	ror	eax, 2
	ror	eax, 2
	ror	eax, 2
	ror	eax, 2
	ror	eax, 2
	ror	eax, 2
	ror	eax, 2
	ror	eax, 2
	ror	eax, 2
	ror	eax, 2
	ror	eax, 2
	ror	eax, 2
	ror	eax, 2
	ror	eax, 2
	ror	eax, 2
	ror	eax, 2
	ror	eax, 2
	ror	eax, 2
	ror	eax, 2
	ror	eax, 2
	ror	eax, 2
	ror	eax, 2
	ror	eax, 2
	ror	eax, 2
	ror	eax, 2
	ror	eax, 2
	ror	eax, 2
	ror	eax, 2
	ror	eax, 2
	ror	eax, 2
	ror	eax, 2
	ror	eax, 2
	ror	eax, 2
	ror	eax, 2
	ror	eax, 2
	ror	eax, 2
	ror	eax, 2
	ror	eax, 2
	ror	eax, 2
	ror	eax, 2
	ror	eax, 2
	ror	eax, 2
	ror	eax, 2
	ror	eax, 2
	ror	eax, 2
	ror	eax, 2
	ror	eax, 2
	ror	eax, 2
	ror	eax, 2
	ror	eax, 2
	ror	eax, 2
	ror	eax, 2
	ror	eax, 2
	ror	eax, 2
	ror	eax, 2
	ror	eax, 2
	ror	eax, 2
	ror	eax, 2
	ror	eax, 2
	ror	eax, 2
	ror	eax, 2
	ror	eax, 2
	ror	eax, 2
	ror	eax, 2
	ror	eax, 2
	ror	eax, 2
	ror	eax, 2
	ror	eax, 2
	ror	eax, 2
	ror	eax, 2
	ror	eax, 2
	ror	eax, 2
	ror	eax, 2
	ror	eax, 2
	ror	eax, 2
	ror	eax, 2
	ror	eax, 2
	ror	eax, 2
	ror	eax, 2
	ror	eax, 2
	ror	eax, 2
	ror	eax, 2
	ror	eax, 2
	ror	eax, 2
	ror	eax, 2
	ror	eax, 2
	ror	eax, 2
	ror	eax, 2
	ror	eax, 2
	ror	eax, 2
	ror	eax, 2
	ror	eax, 2
	ror	eax, 2
	ror	eax, 2
	ror	eax, 2
	ror	eax, 2
	ror	eax, 2
	ror	eax, 2
	ror	eax, 2
	ror	eax, 2
	ror	eax, 2
	ror	eax, 2
	ror	eax, 2
	ror	eax, 2
	ror	eax, 2
	ror	eax, 2
	ror	eax, 2
	ror	eax, 2
	ror	eax, 2
	ror	eax, 2
	ror	eax, 2
	ror	eax, 2
	ror	eax, 2
	ror	eax, 2
	ror	eax, 2
	ror	eax, 2
	ror	eax, 2
	ror	eax, 2
	ror	eax, 2
	ror	eax, 2
	ror	eax, 2
	ror	eax, 2
	ror	eax, 2
	ror	eax, 2
	ror	eax, 2
	ror	eax, 2
	ror	eax, 2
	ror	eax, 2
	ror	eax, 2
	ror	eax, 2
	ror	eax, 2
	ror	eax, 2
	ror	eax, 2
	ror	eax, 2
	ror	eax, 2
	ror	eax, 2
	ror	eax, 2
	ror	eax, 2
	ror	eax, 2
	ror	eax, 2
	ror	eax, 2
	ror	eax, 2
	ror	eax, 2
	ror	eax, 2
	ror	eax, 2
	ror	eax, 2
	ror	eax, 2
	ror	eax, 2
	ror	eax, 2
	ror	eax, 2
	ror	eax, 2
	ror	eax, 2
	ror	eax, 2
	ror	eax, 2
	ror	eax, 2
	ror	eax, 2
	ror	eax, 2
	ror	eax, 2
	ror	eax, 2
	ror	eax, 2
	ror	eax, 2
	ror	eax, 2
	ror	eax, 2
	ror	eax, 2
	ror	eax, 2
	ror	eax, 2
	ror	eax, 2
	ror	eax, 2
	ror	eax, 2
	ror	eax, 2
	ror	eax, 2
	ror	eax, 2
	ror	eax, 2
	ror	eax, 2
	ror	eax, 2
	ror	eax, 2
	ror	eax, 2
	ror	eax, 2
	ror	eax, 2
	ror	eax, 2
	ror	eax, 2
	ror	eax, 2
	ror	eax, 2
	ror	eax, 2
	ror	eax, 2
	ror	eax, 2
	ror	eax, 2
	ror	eax, 2
	ror	eax, 2
	ror	eax, 2
	ror	eax, 2
	ror	eax, 2
	ror	eax, 2
	ror	eax, 2
	ror	eax, 2
	ror	eax, 2
	ror	eax, 2
	ror	eax, 2
	ror	eax, 2
	ror	eax, 2
	ror	eax, 2
	ror	eax, 2
	ror	eax, 2
	ror	eax, 2
	ror	eax, 2
	ror	eax, 2
	ror	eax, 2
	ror	eax, 2
	ror	eax, 2
	ror	eax, 2
	ror	eax, 2
	ror	eax, 2
	ror	eax, 2
	ror	eax, 2
	ror	eax, 2
	ror	eax, 2
	ror	eax, 2
	ror	eax, 2
	ror	eax, 2
	ror	eax, 2
	ror	eax, 2
	ror	eax, 2
	ror	eax, 2
	ror	eax, 2
	ror	eax, 2
	ror	eax, 2
	ror	eax, 2
	ror	eax, 2
	ror	eax, 2
	ror	eax, 2
	ror	eax, 2
	ror	eax, 2
	ror	eax, 2
	ror	eax, 2
	ror	eax, 2
	ror	eax, 2
	ror	eax, 2
	ror	eax, 2
	ror	eax, 2
	ror	eax, 2
	ror	eax, 2
	ror	eax, 2
	ror	eax, 2
	ror	eax, 2
	ror	eax, 2
	ror	eax, 2
	ror	eax, 2
	ror	eax, 2
	ror	eax, 2
	ror	eax, 2
	ror	eax, 2
	ror	eax, 2
	ror	eax, 2
	ror	eax, 2
	ror	eax, 2
	ror	eax, 2
	ror	eax, 2
	ror	eax, 2
	ror	eax, 2
	ror	eax, 2
	ror	eax, 2
	ror	eax, 2
	ror	eax, 2
	ror	eax, 2
	ror	eax, 2
	ror	eax, 2
	ror	eax, 2
	ror	eax, 2
	ror	eax, 2
	ror	eax, 2
	ror	eax, 2
	ror	eax, 2
	ror	eax, 2
	ror	eax, 2
	ror	eax, 2
	ror	eax, 2
	ror	eax, 2
	ror	eax, 2
	ror	eax, 2
	ror	eax, 2
	ror	eax, 2
	ror	eax, 2
	ror	eax, 2
	ror	eax, 2
	ror	eax, 2
	ror	eax, 2
	ror	eax, 2
	ror	eax, 2
	ror	eax, 2
	ror	eax, 2
	ror	eax, 2
	ror	eax, 2
	ror	eax, 2
	ror	eax, 2
	ror	eax, 2
	ror	eax, 2
	ror	eax, 2
	ror	eax, 2
	ror	eax, 2
	ror	eax, 2
	ror	eax, 2
	ror	eax, 2
	ror	eax, 2
	ror	eax, 2
	ror	eax, 2
	ror	eax, 2
	ror	eax, 2
	ror	eax, 2
	ror	eax, 2
	ror	eax, 2
	ror	eax, 2
	ror	eax, 2
	ror	eax, 2
	ror	eax, 2
	ror	eax, 2
	ror	eax, 2
	ror	eax, 2
	ror	eax, 2
	ror	eax, 2
	ror	eax, 2
	ror	eax, 2
	ror	eax, 2
	ror	eax, 2
	ror	eax, 2
	ror	eax, 2
	ror	eax, 2
	ror	eax, 2
	ror	eax, 2
	ror	eax, 2
	ror	eax, 2
	ror	eax, 2
	ror	eax, 2
	ror	eax, 2
	ror	eax, 2
	ror	eax, 2
	ror	eax, 2
	ror	eax, 2
	ror	eax, 2
	ror	eax, 2
	ror	eax, 2
	ror	eax, 2
	ror	eax, 2
	ror	eax, 2
	ror	eax, 2
	ror	eax, 2
	ror	eax, 2
	ror	eax, 2
	ror	eax, 2
	ror	eax, 2
	ror	eax, 2
	ror	eax, 2
	ror	eax, 2
	ror	eax, 2
	ror	eax, 2
	ror	eax, 2
	ror	eax, 2
	ror	eax, 2
	ror	eax, 2
	ror	eax, 2
	ror	eax, 2
	ror	eax, 2
	ror	eax, 2
	ror	eax, 2
	ror	eax, 2
	ror	eax, 2
	ror	eax, 2
	ror	eax, 2
	ror	eax, 2
	ror	eax, 2
	ror	eax, 2
	ror	eax, 2
	ror	eax, 2
	ror	eax, 2
	ror	eax, 2
	ror	eax, 2
	ror	eax, 2
	ror	eax, 2
	ror	eax, 2
	ror	eax, 2
	ror	eax, 2
	ror	eax, 2
	ror	eax, 2
	ror	eax, 2
	ror	eax, 2
	ror	eax, 2
	ror	eax, 2
	ror	eax, 2
	ror	eax, 2
	ror	eax, 2
	ror	eax, 2
	ror	eax, 2
	ror	eax, 2
	ror	eax, 2
	ror	eax, 2
	ror	eax, 2
	ror	eax, 2
	ror	eax, 2
	ror	eax, 2
	ror	eax, 2
	ror	eax, 2
	ror	eax, 2
	ror	eax, 2
	ror	eax, 2
	ror	eax, 2
	ror	eax, 2
	ror	eax, 2
	ror	eax, 2
	ror	eax, 2
	ror	eax, 2
	ror	eax, 2
	ror	eax, 2
	ror	eax, 2
	ror	eax, 2
	ror	eax, 2
	ror	eax, 2
	ror	eax, 2
	ror	eax, 2
	ror	eax, 2
	ror	eax, 2
	ror	eax, 2
	ror	eax, 2
	ror	eax, 2
	ror	eax, 2
	ror	eax, 2
	ror	eax, 2
	ror	eax, 2
	ror	eax, 2
	ror	eax, 2
	ror	eax, 2
	ror	eax, 2
	ror	eax, 2
	ror	eax, 2
	ror	eax, 2
	ror	eax, 2
	ror	eax, 2
	ror	eax, 2
	ror	eax, 2
	ror	eax, 2
	ror	eax, 2
	ror	eax, 2
	ror	eax, 2
	ror	eax, 2
	ror	eax, 2
	ror	eax, 2
	ror	eax, 2
	ror	eax, 2
	ror	eax, 2
	ror	eax, 2
	ror	eax, 2
	ror	eax, 2
	ror	eax, 2
	ror	eax, 2
	ror	eax, 2
	ror	eax, 2
	ror	eax, 2
	ror	eax, 2
	ror	eax, 2
	ror	eax, 2
	ror	eax, 2
	ror	eax, 2
	ror	eax, 2
	ror	eax, 2
	ror	eax, 2
	ror	eax, 2
	ror	eax, 2
	ror	eax, 2
	ror	eax, 2
	ror	eax, 2
	ror	eax, 2
	ror	eax, 2
	ror	eax, 2
	ror	eax, 2
	ror	eax, 2
	ror	eax, 2
	ror	eax, 2
	ror	eax, 2
	ror	eax, 2
	ror	eax, 2
	ror	eax, 2
	ror	eax, 2
	ror	eax, 2
	ror	eax, 2
	ror	eax, 2
	ror	eax, 2
	ror	eax, 2
	ror	eax, 2
	ror	eax, 2
	ror	eax, 2
	ror	eax, 2
	ror	eax, 2
	ror	eax, 2
	ror	eax, 2
	ror	eax, 2
	ror	eax, 2
	ror	eax, 2
	ror	eax, 2
	ror	eax, 2
	ror	eax, 2
	ror	eax, 2
	ror	eax, 2
	ror	eax, 2
	ror	eax, 2
	ror	eax, 2
	ror	eax, 2
	ror	eax, 2
	ror	eax, 2
	ror	eax, 2
	ror	eax, 2
	ror	eax, 2
	ror	eax, 2
	ror	eax, 2
	ror	eax, 2
	ror	eax, 2
	ror	eax, 2
	ror	eax, 2
	ror	eax, 2
	ror	eax, 2
	ror	eax, 2
	ror	eax, 2
	ror	eax, 2
	ror	eax, 2
	ror	eax, 2
	ror	eax, 2
	ror	eax, 2
	ror	eax, 2
	ror	eax, 2
	ror	eax, 2
	ror	eax, 2
	ror	eax, 2
	ror	eax, 2
	ror	eax, 2
	ror	eax, 2
	ror	eax, 2
	ror	eax, 2
	ror	eax, 2
	ror	eax, 2
	ror	eax, 2
	ror	eax, 2
	ror	eax, 2
	ror	eax, 2
	ror	eax, 2
	ror	eax, 2
	ror	eax, 2
	ror	eax, 2
	ror	eax, 2
	ror	eax, 2
	ror	eax, 2
	ror	eax, 2
	ror	eax, 2
	ror	eax, 2
	ror	eax, 2
	ror	eax, 2
	ror	eax, 2
	ror	eax, 2
	ror	eax, 2
	ror	eax, 2
	ror	eax, 2
	ror	eax, 2
	ror	eax, 2
	ror	eax, 2
	ror	eax, 2
	ror	eax, 2
	ror	eax, 2
	ror	eax, 2
	ror	eax, 2
	ror	eax, 2
	ror	eax, 2
	ror	eax, 2
	ror	eax, 2
	ror	eax, 2
	ror	eax, 2
	ror	eax, 2
	ror	eax, 2
	ror	eax, 2
	ror	eax, 2
	ror	eax, 2
	ror	eax, 2
	ror	eax, 2
	ror	eax, 2
	ror	eax, 2
	ror	eax, 2
	ror	eax, 2
	ror	eax, 2
	ror	eax, 2
	ror	eax, 2
	ror	eax, 2
	ror	eax, 2
	ror	eax, 2
	ror	eax, 2
	ror	eax, 2
	ror	eax, 2
	ror	eax, 2
	ror	eax, 2
	ror	eax, 2
	ror	eax, 2
	ror	eax, 2
	ror	eax, 2
	ror	eax, 2
	ror	eax, 2
	ror	eax, 2
	ror	eax, 2
	ror	eax, 2
	ror	eax, 2
	ror	eax, 2
	ror	eax, 2
	ror	eax, 2
	ror	eax, 2
	ror	eax, 2
	ror	eax, 2
	ror	eax, 2
	ror	eax, 2
	ror	eax, 2
	ror	eax, 2
	ror	eax, 2
	ror	eax, 2
	ror	eax, 2
	ror	eax, 2
	ror	eax, 2
	ror	eax, 2
	ror	eax, 2
	ror	eax, 2
	ror	eax, 2
	ror	eax, 2
	ror	eax, 2
	ror	eax, 2
	ror	eax, 2
	ror	eax, 2
	ror	eax, 2
	ror	eax, 2
	ror	eax, 2
	ror	eax, 2
	ror	eax, 2
	ror	eax, 2
	ror	eax, 2
	ror	eax, 2
	ror	eax, 2
	ror	eax, 2
	ror	eax, 2
	ror	eax, 2
	ror	eax, 2
	ror	eax, 2
	ror	eax, 2
	ror	eax, 2
	ror	eax, 2
	ror	eax, 2
	ror	eax, 2
	ror	eax, 2
	ror	eax, 2
	ror	eax, 2
	ror	eax, 2
	ror	eax, 2
	ror	eax, 2
	ror	eax, 2
	ror	eax, 2
	ror	eax, 2
	ror	eax, 2
	ror	eax, 2
	ror	eax, 2
	ror	eax, 2
	ror	eax, 2
	ror	eax, 2
	ror	eax, 2
	ror	eax, 2
	ror	eax, 2
	ror	eax, 2
	ror	eax, 2
	ror	eax, 2
	ror	eax, 2
	ror	eax, 2
	ror	eax, 2
	ror	eax, 2
	ror	eax, 2
	ror	eax, 2
	ror	eax, 2
	ror	eax, 2
	ror	eax, 2
	ror	eax, 2
	ror	eax, 2
	ror	eax, 2
	ror	eax, 2
	ror	eax, 2
	ror	eax, 2
	ror	eax, 2
	ror	eax, 2
	ror	eax, 2
	ror	eax, 2
	ror	eax, 2
	ror	eax, 2
	ror	eax, 2
	ror	eax, 2
	ror	eax, 2
	ror	eax, 2
	ror	eax, 2
	ror	eax, 2
	ror	eax, 2
	ror	eax, 2
	ror	eax, 2
	ror	eax, 2
	ror	eax, 2
	ror	eax, 2
	ror	eax, 2
	ror	eax, 2
	ror	eax, 2
	ror	eax, 2
	ror	eax, 2
	ror	eax, 2
	ror	eax, 2
	ror	eax, 2
	ror	eax, 2
	ror	eax, 2
	ror	eax, 2
	ror	eax, 2
	ror	eax, 2
	ror	eax, 2
	ror	eax, 2
	ror	eax, 2
	ror	eax, 2
	ror	eax, 2
	ror	eax, 2
	ror	eax, 2
	ror	eax, 2
	ror	eax, 2
	ror	eax, 2
	ror	eax, 2
	ror	eax, 2
	ror	eax, 2
	ror	eax, 2
	ror	eax, 2
	ror	eax, 2
	ror	eax, 2
	ror	eax, 2
	ror	eax, 2
	ror	eax, 2
	ror	eax, 2
	ror	eax, 2
	ror	eax, 2
	ror	eax, 2
	ror	eax, 2
	ror	eax, 2
	ror	eax, 2
	ror	eax, 2
	ror	eax, 2
	ror	eax, 2
	ror	eax, 2
	ror	eax, 2
	ror	eax, 2
	ror	eax, 2
	ror	eax, 2
	ror	eax, 2
	ror	eax, 2
	ror	eax, 2
	ror	eax, 2
	ror	eax, 2
	ror	eax, 2
	ror	eax, 2
	ror	eax, 2
	ror	eax, 2
	ror	eax, 2
	ror	eax, 2
	ror	eax, 2
	ror	eax, 2
	ror	eax, 2
	ror	eax, 2
	ror	eax, 2
	ror	eax, 2
	ror	eax, 2
	ror	eax, 2
	ror	eax, 2
	ror	eax, 2
	ror	eax, 2
	ror	eax, 2
	ror	eax, 2
	ror	eax, 2
	ror	eax, 2
	ror	eax, 2
	ror	eax, 2
	ror	eax, 2
	ror	eax, 2
	ror	eax, 2
	ror	eax, 2
	ror	eax, 2
	ror	eax, 2
	ror	eax, 2
	ror	eax, 2
	ror	eax, 2
	ror	eax, 2
	ror	eax, 2
	ror	eax, 2
	ror	eax, 2
	ror	eax, 2
	ror	eax, 2
	ror	eax, 2
	ror	eax, 2
	ror	eax, 2
	ror	eax, 2
	ror	eax, 2
	ror	eax, 2
	ror	eax, 2
	ror	eax, 2
	ror	eax, 2
	ror	eax, 2
	ror	eax, 2
	ror	eax, 2
	ror	eax, 2
	ror	eax, 2
	ror	eax, 2
	ror	eax, 2
	ror	eax, 2
	ror	eax, 2
	ror	eax, 2
	ror	eax, 2
	ror	eax, 2
	ror	eax, 2
	ror	eax, 2
	ror	eax, 2
	ror	eax, 2
	ror	eax, 2
	ror	eax, 2
	ror	eax, 2
	ror	eax, 2
	ror	eax, 2
	ror	eax, 2
	ror	eax, 2
	ror	eax, 2
	ror	eax, 2
	ror	eax, 2
	ror	eax, 2
	ror	eax, 2
	ror	eax, 2
	ror	eax, 2
	ror	eax, 2
	ror	eax, 2
	ror	eax, 2
	ror	eax, 2
	ror	eax, 2
	ror	eax, 2
	ror	eax, 2
	ror	eax, 2
	ror	eax, 2
	ror	eax, 2
	ror	eax, 2
	ror	eax, 2
	ror	eax, 2
	ror	eax, 2
	ror	eax, 2
	ror	eax, 2
	ror	eax, 2
	ror	eax, 2
	ror	eax, 2
	ror	eax, 2
	ror	eax, 2
	ror	eax, 2
	ror	eax, 2
	ror	eax, 2
	ror	eax, 2
	ror	eax, 2
	ror	eax, 2
	ror	eax, 2
	ror	eax, 2
	ror	eax, 2
	ror	eax, 2
	ror	eax, 2
	ror	eax, 2
	ror	eax, 2
	ror	eax, 2
	ror	eax, 2
	ror	eax, 2
	ror	eax, 2
	ror	eax, 2
	ror	eax, 2
	ror	eax, 2
	ror	eax, 2
	ror	eax, 2
	ror	eax, 2
	ror	eax, 2
	ror	eax, 2
	ror	eax, 2
	ror	eax, 2
	ror	eax, 2
	ror	eax, 2
	ror	eax, 2
	ror	eax, 2
	ror	eax, 2
	ror	eax, 2
	ror	eax, 2
	ror	eax, 2
	ror	eax, 2
	ror	eax, 2
	ror	eax, 2
	ror	eax, 2
	ror	eax, 2
	ror	eax, 2
	ror	eax, 2
	ror	eax, 2
	ror	eax, 2
	ror	eax, 2
	ror	eax, 2
	ror	eax, 2
	ror	eax, 2
	ror	eax, 2
	ror	eax, 2
	ror	eax, 2
	ror	eax, 2
	ror	eax, 2
	ror	eax, 2
	ror	eax, 2
	ror	eax, 2
	ror	eax, 2
	ror	eax, 2
	ror	eax, 2
	ror	eax, 2
	ror	eax, 2
	ror	eax, 2
	ror	eax, 2
	ror	eax, 2
	ror	eax, 2
	ror	eax, 2
	ror	eax, 2
	ror	eax, 2
	ror	eax, 2
	ror	eax, 2
	ror	eax, 2
	ror	eax, 2
	ror	eax, 2
	ror	eax, 2
	ror	eax, 2
	ror	eax, 2
	ror	eax, 2
	ror	eax, 2
	ror	eax, 2
	ror	eax, 2
	ror	eax, 2
	ror	eax, 2
	ror	eax, 2
	ror	eax, 2
	ror	eax, 2
	ror	eax, 2
	ror	eax, 2
	ror	eax, 2
	ror	eax, 2
	ror	eax, 2
	ror	eax, 2
	ror	eax, 2
	ror	eax, 2
	ror	eax, 2
	ror	eax, 2
	ror	eax, 2
	ror	eax, 2
	ror	eax, 2
	ror	eax, 2
	ror	eax, 2
	ror	eax, 2
	ror	eax, 2
	ror	eax, 2
	ror	eax, 2
	ror	eax, 2
	ror	eax, 2
	ror	eax, 2
	ror	eax, 2
	ror	eax, 2
	ror	eax, 2
	ror	eax, 2
	ror	eax, 2
	ror	eax, 2
	ror	eax, 2
	ror	eax, 2
	ror	eax, 2
	ror	eax, 2
	ror	eax, 2
	ror	eax, 2
	ror	eax, 2
	ror	eax, 2
	ror	eax, 2
	ror	eax, 2
	ror	eax, 2
	ror	eax, 2
	ror	eax, 2
	ror	eax, 2
	ror	eax, 2
	ror	eax, 2
	ror	eax, 2
	ror	eax, 2
	ror	eax, 2
	ror	eax, 2
	ror	eax, 2
	ror	eax, 2
	ror	eax, 2
	ror	eax, 2
	ror	eax, 2
	ror	eax, 2
	ror	eax, 2
	ror	eax, 2
	ror	eax, 2
	ror	eax, 2
	ror	eax, 2
	ror	eax, 2
	ror	eax, 2
	ror	eax, 2
	ror	eax, 2
	ror	eax, 2
	ror	eax, 2
	ror	eax, 2
	ror	eax, 2
	ror	eax, 2
	ror	eax, 2
	ror	eax, 2
	ror	eax, 2
	ror	eax, 2
	ror	eax, 2
	ror	eax, 2
	ror	eax, 2
	ror	eax, 2
	ror	eax, 2
	ror	eax, 2
	ror	eax, 2
	ror	eax, 2
	ror	eax, 2
	ror	eax, 2
	ror	eax, 2
	ror	eax, 2
	ror	eax, 2
	ror	eax, 2
	ror	eax, 2
	ror	eax, 2
	ror	eax, 2
	ror	eax, 2
	ror	eax, 2
	ror	eax, 2
	ror	eax, 2
	ror	eax, 2
	ror	eax, 2
	ror	eax, 2
	ror	eax, 2
	ror	eax, 2
	ror	eax, 2
	ror	eax, 2
	ror	eax, 2
	ror	eax, 2
	ror	eax, 2
	ror	eax, 2
	ror	eax, 2
	ror	eax, 2
	ror	eax, 2
	ror	eax, 2
	ror	eax, 2
	ror	eax, 2
	ror	eax, 2
	ror	eax, 2
	ror	eax, 2
	ror	eax, 2
	ror	eax, 2
	ror	eax, 2
	ror	eax, 2
	ror	eax, 2
	ror	eax, 2
	ror	eax, 2
	ror	eax, 2
	ror	eax, 2
	ror	eax, 2
	ror	eax, 2
	ror	eax, 2
	ror	eax, 2
	ror	eax, 2
	ror	eax, 2
	ror	eax, 2
	ror	eax, 2
	ror	eax, 2
	ror	eax, 2
	ror	eax, 2
	ror	eax, 2
	ror	eax, 2
	ror	eax, 2
	ror	eax, 2
	ror	eax, 2
	ror	eax, 2
	ror	eax, 2
	ror	eax, 2
	ror	eax, 2
	ror	eax, 2
	ror	eax, 2
	ror	eax, 2
	ror	eax, 2
	ror	eax, 2
	ror	eax, 2
	ror	eax, 2
	ror	eax, 2
	ror	eax, 2
	ror	eax, 2
	ror	eax, 2
	ror	eax, 2
	ror	eax, 2
	ror	eax, 2
	ror	eax, 2
	ror	eax, 2
	ror	eax, 2
	ror	eax, 2
	ror	eax, 2
	ror	eax, 2
	ror	eax, 2
	ror	eax, 2
	ror	eax, 2
	ror	eax, 2
	ror	eax, 2
	ror	eax, 2
	ror	eax, 2
	ror	eax, 2
	ror	eax, 2
	ror	eax, 2
	ror	eax, 2
	ror	eax, 2
	ror	eax, 2
	ror	eax, 2
	ror	eax, 2
	ror	eax, 2
	ror	eax, 2
	ror	eax, 2
	ror	eax, 2
	ror	eax, 2
	ror	eax, 2
	ror	eax, 2
	ror	eax, 2
	ror	eax, 2
	ror	eax, 2
	ror	eax, 2
	ror	eax, 2
	ror	eax, 2
	ror	eax, 2
	ror	eax, 2
	ror	eax, 2
	ror	eax, 2
	ror	eax, 2
	ror	eax, 2
	ror	eax, 2
	ror	eax, 2
	ror	eax, 2
	ror	eax, 2
	ror	eax, 2
	ror	eax, 2
	ror	eax, 2
	ror	eax, 2
	ror	eax, 2
	ror	eax, 2
	ror	eax, 2
	ror	eax, 2
	ror	eax, 2
	ror	eax, 2
	ror	eax, 2
	ror	eax, 2
	ror	eax, 2
	ror	eax, 2
	ror	eax, 2
	ror	eax, 2
	ror	eax, 2
	ror	eax, 2
	ror	eax, 2
	ror	eax, 2
	ror	eax, 2
	ror	eax, 2
	ror	eax, 2
	ror	eax, 2
	ror	eax, 2
	ror	eax, 2
	ror	eax, 2
	ror	eax, 2
	ror	eax, 2
	ror	eax, 2
	ror	eax, 2
	ror	eax, 2
	ror	eax, 2
	ror	eax, 2
	ror	eax, 2
	ror	eax, 2
	ror	eax, 2
	ror	eax, 2
	ror	eax, 2
	ror	eax, 2
	ror	eax, 2
	ror	eax, 2
	ror	eax, 2
	ror	eax, 2
	ror	eax, 2
	ror	eax, 2
	ror	eax, 2
	ror	eax, 2
	ror	eax, 2
	ror	eax, 2
	ror	eax, 2
	ror	eax, 2
	ror	eax, 2
	ror	eax, 2
	ror	eax, 2
	ror	eax, 2
	ror	eax, 2
	ror	eax, 2
	ror	eax, 2
	ror	eax, 2
	ror	eax, 2
	ror	eax, 2
	ror	eax, 2
	ror	eax, 2
	ror	eax, 2
	ror	eax, 2
	ror	eax, 2
	ror	eax, 2
	ror	eax, 2
	ror	eax, 2
	ror	eax, 2
	ror	eax, 2
	ror	eax, 2
	ror	eax, 2
	ror	eax, 2
	ror	eax, 2
	ror	eax, 2
	ror	eax, 2
	ror	eax, 2
	ror	eax, 2
	ror	eax, 2
	ror	eax, 2
	ror	eax, 2
	ror	eax, 2
	ror	eax, 2
	ror	eax, 2
	ror	eax, 2
	ror	eax, 2
	ror	eax, 2
	ror	eax, 2
	ror	eax, 2
	ror	eax, 2
	ror	eax, 2
	ror	eax, 2
	ror	eax, 2
	ror	eax, 2
	ror	eax, 2
	ror	eax, 2
	ror	eax, 2
	ror	eax, 2
	ror	eax, 2
	ror	eax, 2
	ror	eax, 2
	ror	eax, 2
	ror	eax, 2
	ror	eax, 2
	ror	eax, 2
	ror	eax, 2
	ror	eax, 2
	ror	eax, 2
	ror	eax, 2
	ror	eax, 2
	ror	eax, 2
	ror	eax, 2
	ror	eax, 2
	ror	eax, 2
	ror	eax, 2
	ror	eax, 2
	ror	eax, 2
	ror	eax, 2
	ror	eax, 2
	ror	eax, 2
	ror	eax, 2
	ror	eax, 2
	ror	eax, 2
	ror	eax, 2
	ror	eax, 2
	ror	eax, 2
	ror	eax, 2
	ror	eax, 2
	ror	eax, 2
	ror	eax, 2
	ror	eax, 2
	ror	eax, 2
	ror	eax, 2
	ror	eax, 2
	ror	eax, 2
	ror	eax, 2
	ror	eax, 2
	ror	eax, 2
	ror	eax, 2
	ror	eax, 2
	ror	eax, 2
	ror	eax, 2
	ror	eax, 2
	ror	eax, 2
	ror	eax, 2
	ror	eax, 2
	ror	eax, 2
	ror	eax, 2
	ror	eax, 2
	ror	eax, 2
	ror	eax, 2
	ror	eax, 2
	ror	eax, 2
	ror	eax, 2
	ror	eax, 2
	ror	eax, 2
	ror	eax, 2
	ror	eax, 2
	ror	eax, 2
	ror	eax, 2
	ror	eax, 2
	ror	eax, 2
	ror	eax, 2
	ror	eax, 2
	ror	eax, 2
	ror	eax, 2
	ror	eax, 2
	ror	eax, 2
	ror	eax, 2
	ror	eax, 2
	ror	eax, 2
	ror	eax, 2
	ror	eax, 2
	ror	eax, 2
	ror	eax, 2
	ror	eax, 2
	ror	eax, 2
	ror	eax, 2
	ror	eax, 2
	ror	eax, 2
	ror	eax, 2
	ror	eax, 2
	ror	eax, 2
	ror	eax, 2
	ror	eax, 2
	ror	eax, 2
	ror	eax, 2
	ror	eax, 2
	ror	eax, 2
	ror	eax, 2
	ror	eax, 2
	ror	eax, 2
	ror	eax, 2
	ror	eax, 2
	ror	eax, 2
	ror	eax, 2
	ror	eax, 2
	ror	eax, 2
	ror	eax, 2
	ror	eax, 2
	ror	eax, 2
	ror	eax, 2
	ror	eax, 2
	ror	eax, 2
	ror	eax, 2
	ror	eax, 2
	ror	eax, 2
	ror	eax, 2
	ror	eax, 2
	ror	eax, 2
	ror	eax, 2
	ror	eax, 2
	ror	eax, 2
	ror	eax, 2
	ror	eax, 2
	ror	eax, 2
	ror	eax, 2
	ror	eax, 2
	ror	eax, 2
	ror	eax, 2
	ror	eax, 2
	ror	eax, 2
	ror	eax, 2
	ror	eax, 2
	ror	eax, 2
	ror	eax, 2
	ror	eax, 2
	ror	eax, 2
	ror	eax, 2
	ror	eax, 2
	ror	eax, 2
	ror	eax, 2
	ror	eax, 2
	ror	eax, 2
	ror	eax, 2
	ror	eax, 2
	ror	eax, 2
	ror	eax, 2
	ror	eax, 2
	ror	eax, 2
	ror	eax, 2
	ror	eax, 2
	ror	eax, 2
	ror	eax, 2
	ror	eax, 2
	ror	eax, 2
	ror	eax, 2
	ror	eax, 2
	ror	eax, 2
	ror	eax, 2
	ror	eax, 2
	ror	eax, 2
	ror	eax, 2
	ror	eax, 2
	ror	eax, 2
	ror	eax, 2
	ror	eax, 2
	ror	eax, 2
	ror	eax, 2
	ror	eax, 2
	ror	eax, 2
	ror	eax, 2
	ror	eax, 2
	ror	eax, 2
	ror	eax, 2
	ror	eax, 2
	ror	eax, 2
	ror	eax, 2
	ror	eax, 2
	ror	eax, 2
	ror	eax, 2
	ror	eax, 2
	ror	eax, 2
	ror	eax, 2
	ror	eax, 2
	ror	eax, 2
	ror	eax, 2
	ror	eax, 2
	ror	eax, 2
	ror	eax, 2
	ror	eax, 2
	ror	eax, 2
	ror	eax, 2
	ror	eax, 2
	ror	eax, 2
	ror	eax, 2
	ror	eax, 2
	ror	eax, 2
	ror	eax, 2
	ror	eax, 2
	ror	eax, 2
	ror	eax, 2
	ror	eax, 2
	ror	eax, 2
	ror	eax, 2
	ror	eax, 2
	ror	eax, 2
	ror	eax, 2
	ror	eax, 2
	ror	eax, 2
	ror	eax, 2
	ror	eax, 2
	ror	eax, 2
	ror	eax, 2
	ror	eax, 2
	ror	eax, 2
	ror	eax, 2
	ror	eax, 2
	ror	eax, 2
	ror	eax, 2
	ror	eax, 2
	ror	eax, 2
	ror	eax, 2
	ror	eax, 2
	ror	eax, 2
	ror	eax, 2
	ror	eax, 2
	ror	eax, 2
	ror	eax, 2
	ror	eax, 2
	ror	eax, 2
	ror	eax, 2
	ror	eax, 2
	ror	eax, 2
	ror	eax, 2
	ror	eax, 2
	ror	eax, 2
	ror	eax, 2
	ror	eax, 2
	ror	eax, 2
	ror	eax, 2
	ror	eax, 2
	ror	eax, 2
	ror	eax, 2
	ror	eax, 2
	ror	eax, 2
	ror	eax, 2
	ror	eax, 2
	ror	eax, 2
	ror	eax, 2
	ror	eax, 2
	ror	eax, 2
	ror	eax, 2
	ror	eax, 2
	ror	eax, 2
	ror	eax, 2
	ror	eax, 2
	ror	eax, 2
	ror	eax, 2
	ror	eax, 2
	ror	eax, 2
	ror	eax, 2
	ror	eax, 2
	ror	eax, 2
	ror	eax, 2
	ror	eax, 2
	ror	eax, 2
	ror	eax, 2
	ror	eax, 2
	ror	eax, 2
	ror	eax, 2
	ror	eax, 2
	ror	eax, 2
	ror	eax, 2
	ror	eax, 2
	ror	eax, 2
	ror	eax, 2
	ror	eax, 2
	ror	eax, 2
	ror	eax, 2
	ror	eax, 2
	ror	eax, 2
	ror	eax, 2
	ror	eax, 2
	ror	eax, 2
	ror	eax, 2
	ror	eax, 2
	ror	eax, 2
	ror	eax, 2
	ror	eax, 2
	ror	eax, 2
	ror	eax, 2
	ror	eax, 2
	ror	eax, 2
	ror	eax, 2
	ror	eax, 2
	ror	eax, 2
	ror	eax, 2
	ror	eax, 2
	ror	eax, 2
	ror	eax, 2
	ror	eax, 2
	ror	eax, 2
	ror	eax, 2
	ror	eax, 2
	ror	eax, 2
	ror	eax, 2
	ror	eax, 2
	ror	eax, 2
	ror	eax, 2
	ror	eax, 2
	ror	eax, 2
	ror	eax, 2
	ror	eax, 2
	ror	eax, 2
	ror	eax, 2
	ror	eax, 2
	ror	eax, 2
	ror	eax, 2
	ror	eax, 2
	ror	eax, 2
	ror	eax, 2
	ror	eax, 2
	ror	eax, 2
	ror	eax, 2
	ror	eax, 2
	ror	eax, 2
	ror	eax, 2
	ror	eax, 2
	ror	eax, 2
	ror	eax, 2
	ror	eax, 2
	ror	eax, 2
	ror	eax, 2
	ror	eax, 2
	ror	eax, 2
	ror	eax, 2
	ror	eax, 2
	ror	eax, 2
	ror	eax, 2
	ror	eax, 2
	ror	eax, 2
	ror	eax, 2
	ror	eax, 2
	ror	eax, 2
	ror	eax, 2
	ror	eax, 2
	ror	eax, 2
	ror	eax, 2
	ror	eax, 2
	ror	eax, 2
	ror	eax, 2
	ror	eax, 2
	ror	eax, 2
	ror	eax, 2
	ror	eax, 2
	ror	eax, 2
	ror	eax, 2
	ror	eax, 2
	ror	eax, 2
	ror	eax, 2
	ror	eax, 2
	ror	eax, 2
	ror	eax, 2
	ror	eax, 2
	ror	eax, 2
	ror	eax, 2
	ror	eax, 2
	ror	eax, 2
	ror	eax, 2
	ror	eax, 2
	ror	eax, 2
	ror	eax, 2
	ror	eax, 2
	ror	eax, 2
	ror	eax, 2
	ror	eax, 2
	ror	eax, 2
	ror	eax, 2
	ror	eax, 2
	ror	eax, 2
	ror	eax, 2
	ror	eax, 2
	ror	eax, 2
	ror	eax, 2
	ror	eax, 2
	ror	eax, 2
	ror	eax, 2
	ror	eax, 2
	ror	eax, 2
	ror	eax, 2
	ror	eax, 2
	ror	eax, 2
	ror	eax, 2
	ror	eax, 2
	ror	eax, 2
	ror	eax, 2
	ror	eax, 2
	ror	eax, 2
	ror	eax, 2
	ror	eax, 2
	ror	eax, 2
	ror	eax, 2
	ror	eax, 2
	ror	eax, 2
	ror	eax, 2
	ror	eax, 2
	ror	eax, 2
	ror	eax, 2
	ror	eax, 2
	ror	eax, 2
	ror	eax, 2
	ror	eax, 2
	ror	eax, 2
	ror	eax, 2
	ror	eax, 2
	ror	eax, 2
	ror	eax, 2
	ror	eax, 2
	ror	eax, 2
	ror	eax, 2
	ror	eax, 2
	ror	eax, 2
	ror	eax, 2
	ror	eax, 2
	ror	eax, 2
	ror	eax, 2
	ror	eax, 2
	ror	eax, 2
	ror	eax, 2
	ror	eax, 2
	ror	eax, 2
	ror	eax, 2
	ror	eax, 2
	ror	eax, 2
	ror	eax, 2
	ror	eax, 2
	ror	eax, 2
	ror	eax, 2
	ror	eax, 2
	ror	eax, 2
	ror	eax, 2
	ror	eax, 2
	ror	eax, 2
	ror	eax, 2
	ror	eax, 2
	ror	eax, 2
	ror	eax, 2
	ror	eax, 2
	ror	eax, 2
	ror	eax, 2
	ror	eax, 2
	ror	eax, 2
	ror	eax, 2
	ror	eax, 2
	ror	eax, 2
	ror	eax, 2
	ror	eax, 2
	ror	eax, 2
	ror	eax, 2
	ror	eax, 2
	ror	eax, 2
	ror	eax, 2
	ror	eax, 2
	ror	eax, 2
	ror	eax, 2
	ror	eax, 2
	ror	eax, 2
	ror	eax, 2
	ror	eax, 2
	ror	eax, 2
	ror	eax, 2
	ror	eax, 2
	ror	eax, 2
	ror	eax, 2
	ror	eax, 2
	ror	eax, 2
	ror	eax, 2
	ror	eax, 2
	ror	eax, 2
	ror	eax, 2
	ror	eax, 2
	ror	eax, 2
	ror	eax, 2
	ror	eax, 2
	ror	eax, 2
	ror	eax, 2
	ror	eax, 2
	ror	eax, 2
	ror	eax, 2
	ror	eax, 2
	ror	eax, 2
	ror	eax, 2
	ror	eax, 2
	ror	eax, 2
	ror	eax, 2
	ror	eax, 2
	ror	eax, 2
	ror	eax, 2
	ror	eax, 2
	ror	eax, 2
	ror	eax, 2
	ror	eax, 2
	ror	eax, 2
	ror	eax, 2
	ror	eax, 2
	ror	eax, 2
	ror	eax, 2
	ror	eax, 2
	ror	eax, 2
	ror	eax, 2
	ror	eax, 2
	ror	eax, 2
	ror	eax, 2
	ror	eax, 2
	ror	eax, 2
	ror	eax, 2
	ror	eax, 2
	ror	eax, 2
	ror	eax, 2
	ror	eax, 2
	ror	eax, 2
	ror	eax, 2
	ror	eax, 2
	ror	eax, 2
	ror	eax, 2
	ror	eax, 2
	ror	eax, 2
	ror	eax, 2
	ror	eax, 2
	ror	eax, 2
	ror	eax, 2
	ror	eax, 2
	ror	eax, 2
	ror	eax, 2
	ror	eax, 2
	ror	eax, 2
	ror	eax, 2
	ror	eax, 2
	ror	eax, 2
	ror	eax, 2
	ror	eax, 2
	ror	eax, 2
	ror	eax, 2
	ror	eax, 2
	ror	eax, 2
	ror	eax, 2
	ror	eax, 2
	ror	eax, 2
	ror	eax, 2
	ror	eax, 2
	ror	eax, 2
	ror	eax, 2
	ror	eax, 2
	ror	eax, 2
	ror	eax, 2
	ror	eax, 2
	ror	eax, 2
	ror	eax, 2
	ror	eax, 2
	ror	eax, 2
	ror	eax, 2
	ror	eax, 2
	ror	eax, 2
	ror	eax, 2
	ror	eax, 2
	ror	eax, 2
	ror	eax, 2
	ror	eax, 2
	ror	eax, 2
	ror	eax, 2
	ror	eax, 2
	ror	eax, 2
	ror	eax, 2
	ror	eax, 2
	ror	eax, 2
	ror	eax, 2
	ror	eax, 2
	ror	eax, 2
	ror	eax, 2
	ror	eax, 2
	ror	eax, 2
	ror	eax, 2
	ror	eax, 2
	ror	eax, 2
	ror	eax, 2
	ror	eax, 2
	ror	eax, 2
	ror	eax, 2
	ror	eax, 2
	ror	eax, 2
	ror	eax, 2
	ror	eax, 2
	ror	eax, 2
	ror	eax, 2
	ror	eax, 2
	ror	eax, 2
	ror	eax, 2
	ror	eax, 2
	ror	eax, 2
	ror	eax, 2
	ror	eax, 2
	ror	eax, 2
	ror	eax, 2
	ror	eax, 2
	ror	eax, 2
	ror	eax, 2
	ror	eax, 2
	ror	eax, 2
	ror	eax, 2
	ror	eax, 2
	ror	eax, 2
	ror	eax, 2
	ror	eax, 2
	ror	eax, 2
	ror	eax, 2
	ror	eax, 2
	ror	eax, 2
	ror	eax, 2
	ror	eax, 2
	ror	eax, 2
	ror	eax, 2
	ror	eax, 2
	ror	eax, 2
	ror	eax, 2
	ror	eax, 2
	ror	eax, 2
	ror	eax, 2
	ror	eax, 2
	ror	eax, 2
	ror	eax, 2
	ror	eax, 2
	ror	eax, 2
	ror	eax, 2
	ror	eax, 2
	ror	eax, 2
	ror	eax, 2
	ror	eax, 2
	ror	eax, 2
	ror	eax, 2
	ror	eax, 2
	ror	eax, 2
	ror	eax, 2
	ror	eax, 2
	ror	eax, 2
	ror	eax, 2
	ror	eax, 2
	ror	eax, 2
	ror	eax, 2
	ror	eax, 2
	ror	eax, 2
	ror	eax, 2
	ror	eax, 2
	ror	eax, 2
	ror	eax, 2
	ror	eax, 2
	ror	eax, 2
	ror	eax, 2
	ror	eax, 2
	ror	eax, 2
	ror	eax, 2
	ror	eax, 2
	ror	eax, 2
	ror	eax, 2
	ror	eax, 2
	ror	eax, 2
	ror	eax, 2
	ror	eax, 2
	ror	eax, 2
	ror	eax, 2
	ror	eax, 2
	ror	eax, 2
	ror	eax, 2
	ror	eax, 2
	ror	eax, 2
	ror	eax, 2
	ror	eax, 2
	ror	eax, 2
	ror	eax, 2
	ror	eax, 2
	ror	eax, 2
	ror	eax, 2
	ror	eax, 2
	ror	eax, 2
	ror	eax, 2
	ror	eax, 2
	ror	eax, 2
	ror	eax, 2
	ror	eax, 2
	ror	eax, 2
	ror	eax, 2
	ror	eax, 2
	ror	eax, 2
	ror	eax, 2
	ror	eax, 2
	ror	eax, 2
	ror	eax, 2
	ror	eax, 2
	ror	eax, 2
	ror	eax, 2
	ror	eax, 2
	ror	eax, 2
	ror	eax, 2
	ror	eax, 2
	ror	eax, 2
	ror	eax, 2
	ror	eax, 2
	ror	eax, 2
	ror	eax, 2
	ror	eax, 2
	ror	eax, 2
	ror	eax, 2
	ror	eax, 2
	ror	eax, 2
	ror	eax, 2
	ror	eax, 2
	ror	eax, 2
	ror	eax, 2
	ror	eax, 2
	ror	eax, 2
	ror	eax, 2
	ror	eax, 2
	ror	eax, 2
	ror	eax, 2
	ror	eax, 2
	ror	eax, 2
	ror	eax, 2
	ror	eax, 2
	ror	eax, 2
	ror	eax, 2
	ror	eax, 2
	ror	eax, 2
	ror	eax, 2
	ror	eax, 2
	ror	eax, 2
	ror	eax, 2
	ror	eax, 2
	ror	eax, 2
	ror	eax, 2
	ror	eax, 2
	ror	eax, 2
	ror	eax, 2
	ror	eax, 2
	ror	eax, 2
	ror	eax, 2
	ror	eax, 2
	ror	eax, 2
	ror	eax, 2
	ror	eax, 2
	ror	eax, 2
	ror	eax, 2
	ror	eax, 2
	ror	eax, 2
	ror	eax, 2
	ror	eax, 2
	ror	eax, 2
	ror	eax, 2
	ror	eax, 2
	ror	eax, 2
	ror	eax, 2
	ror	eax, 2
	ror	eax, 2
	ror	eax, 2
	ror	eax, 2
	ror	eax, 2
	ror	eax, 2
	ror	eax, 2
	ror	eax, 2
	ror	eax, 2
	ror	eax, 2
	ror	eax, 2
	ror	eax, 2
	ror	eax, 2
	ror	eax, 2
	ror	eax, 2
	ror	eax, 2
	ror	eax, 2
	ror	eax, 2
	ror	eax, 2
	ror	eax, 2
	ror	eax, 2
	ror	eax, 2
	ror	eax, 2
	ror	eax, 2
	ror	eax, 2
	ror	eax, 2
	ror	eax, 2
	ror	eax, 2
	ror	eax, 2
	ror	eax, 2
	ror	eax, 2
	ror	eax, 2
	ror	eax, 2
	ror	eax, 2
	ror	eax, 2
	ror	eax, 2
	ror	eax, 2
	ror	eax, 2
	ror	eax, 2
	ror	eax, 2
	ror	eax, 2
	ror	eax, 2
	ror	eax, 2
	ror	eax, 2
	ror	eax, 2
	ror	eax, 2
	ror	eax, 2
	ror	eax, 2
	ror	eax, 2
	ror	eax, 2
	ror	eax, 2
	ror	eax, 2
	ror	eax, 2
	ror	eax, 2
	ror	eax, 2
	ror	eax, 2
	ror	eax, 2
	ror	eax, 2
	ror	eax, 2
	ror	eax, 2
	ror	eax, 2
	ror	eax, 2
	ror	eax, 2
	ror	eax, 2
	ror	eax, 2
	ror	eax, 2
	ror	eax, 2
	ror	eax, 2
	ror	eax, 2
	ror	eax, 2
	ror	eax, 2
	ror	eax, 2
	ror	eax, 2
	ror	eax, 2
	ror	eax, 2
	ror	eax, 2
	ror	eax, 2
	ror	eax, 2
	ror	eax, 2
	ror	eax, 2
	ror	eax, 2
	ror	eax, 2
	ror	eax, 2
	ror	eax, 2
	ror	eax, 2
	ror	eax, 2
	ror	eax, 2
	ror	eax, 2
	ror	eax, 2
	ror	eax, 2
	ror	eax, 2
	ror	eax, 2
	ror	eax, 2
	ror	eax, 2
	ror	eax, 2
	ror	eax, 2
	ror	eax, 2
	ror	eax, 2
	ror	eax, 2
	ror	eax, 2
	ror	eax, 2
	ror	eax, 2
	ror	eax, 2
	ror	eax, 2
	ror	eax, 2
	ror	eax, 2
	ror	eax, 2
	ror	eax, 2
	ror	eax, 2
	ror	eax, 2
	ror	eax, 2
	ror	eax, 2
	ror	eax, 2
	ror	eax, 2
	ror	eax, 2
	ror	eax, 2
	ror	eax, 2
	ror	eax, 2
	ror	eax, 2
	ror	eax, 2
	ror	eax, 2
	ror	eax, 2
	ror	eax, 2
	ror	eax, 2
	ror	eax, 2
	ror	eax, 2
	ror	eax, 2
	ror	eax, 2
	ror	eax, 2
	ror	eax, 2
	ror	eax, 2
	ror	eax, 2
	ror	eax, 2
	ror	eax, 2
	ror	eax, 2
	ror	eax, 2
	ror	eax, 2
	ror	eax, 2
	ror	eax, 2
	ror	eax, 2
	ror	eax, 2
	ror	eax, 2
	ror	eax, 2
	ror	eax, 2
	ror	eax, 2
	ror	eax, 2
	ror	eax, 2
	ror	eax, 2
	ror	eax, 2
	ror	eax, 2
	ror	eax, 2
	ror	eax, 2
	ror	eax, 2
	ror	eax, 2
	ror	eax, 2
	ror	eax, 2
	ror	eax, 2
	ror	eax, 2
	ror	eax, 2
	ror	eax, 2
	ror	eax, 2
	ror	eax, 2
	ror	eax, 2
	ror	eax, 2
	ror	eax, 2
	ror	eax, 2
	ror	eax, 2
	ror	eax, 2
	ror	eax, 2
	ror	eax, 2
	ror	eax, 2
	ror	eax, 2
	ror	eax, 2
	ror	eax, 2
	ror	eax, 2
	ror	eax, 2
	ror	eax, 2
	ror	eax, 2
	ror	eax, 2
	ror	eax, 2
	ror	eax, 2
	ror	eax, 2
	ror	eax, 2
	ror	eax, 2
	ror	eax, 2
	ror	eax, 2
	ror	eax, 2
	ror	eax, 2
	ror	eax, 2
	ror	eax, 2
	ror	eax, 2
	ror	eax, 2
	ror	eax, 2
	ror	eax, 2
	ror	eax, 2
	ror	eax, 2
	ror	eax, 2
	ror	eax, 2
	ror	eax, 2
	ror	eax, 2
	ror	eax, 2
	ror	eax, 2
	ror	eax, 2
	ror	eax, 2
	ror	eax, 2
	ror	eax, 2
	ror	eax, 2
	ror	eax, 2
	ror	eax, 2
	ror	eax, 2
	ror	eax, 2
	ror	eax, 2
	ror	eax, 2
	ror	eax, 2
	ror	eax, 2
	ror	eax, 2
	ror	eax, 2
	ror	eax, 2
	ror	eax, 2
	ror	eax, 2
	ror	eax, 2
	ror	eax, 2
	ror	eax, 2
	ror	eax, 2
	ror	eax, 2
	ror	eax, 2
	ror	eax, 2
	ror	eax, 2
	ror	eax, 2
	ror	eax, 2
	ror	eax, 2
	ror	eax, 2
	ror	eax, 2
	ror	eax, 2
	ror	eax, 2
	ror	eax, 2
	ror	eax, 2
	ror	eax, 2
	ror	eax, 2
	ror	eax, 2
	ror	eax, 2
	ror	eax, 2
	ror	eax, 2
	ror	eax, 2
	ror	eax, 2
	ror	eax, 2
	ror	eax, 2
	ror	eax, 2
	ror	eax, 2
	ror	eax, 2
	ror	eax, 2
	ror	eax, 2
	ror	eax, 2
	ror	eax, 2
	ror	eax, 2
	ror	eax, 2
	ror	eax, 2
	ror	eax, 2
	ror	eax, 2
	ror	eax, 2
	ror	eax, 2
	ror	eax, 2
	ror	eax, 2
	ror	eax, 2
	ror	eax, 2
	ror	eax, 2
	ror	eax, 2
	ror	eax, 2
	ror	eax, 2
	ror	eax, 2
	ror	eax, 2
	ror	eax, 2
	ror	eax, 2
	ror	eax, 2
	ror	eax, 2
	ror	eax, 2
	ror	eax, 2
	ror	eax, 2
	ror	eax, 2
	ror	eax, 2
	ror	eax, 2
	ror	eax, 2
	ror	eax, 2
	ror	eax, 2
	ror	eax, 2
	ror	eax, 2
	ror	eax, 2
	ror	eax, 2
	ror	eax, 2
	ror	eax, 2
	ror	eax, 2
	ror	eax, 2
	ror	eax, 2
	ror	eax, 2
	ror	eax, 2
	ror	eax, 2
	ror	eax, 2
	ror	eax, 2
	ror	eax, 2
	ror	eax, 2
	ror	eax, 2
	ror	eax, 2
	ror	eax, 2
	ror	eax, 2
	ror	eax, 2
	ror	eax, 2
	ror	eax, 2
	ror	eax, 2
	ror	eax, 2
	ror	eax, 2
	ror	eax, 2
	ror	eax, 2
	ror	eax, 2
	ror	eax, 2
	ror	eax, 2
	ror	eax, 2
	ror	eax, 2
	ror	eax, 2
	ror	eax, 2
	ror	eax, 2
	ror	eax, 2
	ror	eax, 2
	ror	eax, 2
	ror	eax, 2
	ror	eax, 2
	ror	eax, 2
	ror	eax, 2
	ror	eax, 2
	ror	eax, 2
	ror	eax, 2
	ror	eax, 2
	ror	eax, 2
	ror	eax, 2
	ror	eax, 2
	ror	eax, 2
	ror	eax, 2
	ror	eax, 2
	ror	eax, 2
	ror	eax, 2
	ror	eax, 2
	ror	eax, 2
	ror	eax, 2
	ror	eax, 2
	ror	eax, 2
	ror	eax, 2
	ror	eax, 2
	ror	eax, 2
	ror	eax, 2
	ror	eax, 2
	ror	eax, 2
	ror	eax, 2
	ror	eax, 2
	ror	eax, 2
	ror	eax, 2
	ror	eax, 2
	ror	eax, 2
	ror	eax, 2
	ror	eax, 2
	ror	eax, 2
	ror	eax, 2
	ror	eax, 2
	ror	eax, 2
	ror	eax, 2
	ror	eax, 2
	ror	eax, 2
	ror	eax, 2
	ror	eax, 2
	ror	eax, 2
	ror	eax, 2
	ror	eax, 2
	ror	eax, 2
	ror	eax, 2
	ror	eax, 2
	ror	eax, 2
	ror	eax, 2
	ror	eax, 2
	ror	eax, 2
	ror	eax, 2
	ror	eax, 2
	ror	eax, 2
	ror	eax, 2
	ror	eax, 2
	ror	eax, 2
	ror	eax, 2
	ror	eax, 2
	ror	eax, 2
	ror	eax, 2
	ror	eax, 2
	ror	eax, 2
	ror	eax, 2
	ror	eax, 2
	ror	eax, 2
	ror	eax, 2
	ror	eax, 2
	ror	eax, 2
	ror	eax, 2
	ror	eax, 2
	ror	eax, 2
	ror	eax, 2
	ror	eax, 2
	ror	eax, 2
	ror	eax, 2
	ror	eax, 2
	ror	eax, 2
	ror	eax, 2
	ror	eax, 2
	ror	eax, 2
	ror	eax, 2
	ror	eax, 2
	ror	eax, 2
	ror	eax, 2
	ror	eax, 2
	ror	eax, 2
	ror	eax, 2
	ror	eax, 2
	ror	eax, 2
	ror	eax, 2
	ror	eax, 2
	ror	eax, 2
	ror	eax, 2
	ror	eax, 2
	ror	eax, 2
	ror	eax, 2
	ror	eax, 2
	ror	eax, 2
	ror	eax, 2
	ror	eax, 2
	ror	eax, 2
	ror	eax, 2
	ror	eax, 2
	ror	eax, 2
	ror	eax, 2
	ror	eax, 2
	ror	eax, 2
	ror	eax, 2
	ror	eax, 2
	ror	eax, 2
	ror	eax, 2
	ror	eax, 2
	ror	eax, 2
	ror	eax, 2
	ror	eax, 2
	ror	eax, 2
	ror	eax, 2
	ror	eax, 2
	ror	eax, 2
	ror	eax, 2
	ror	eax, 2
	ror	eax, 2
	ror	eax, 2
	ror	eax, 2
	ror	eax, 2
	ror	eax, 2
	ror	eax, 2
	ror	eax, 2
	ror	eax, 2
	ror	eax, 2
	ror	eax, 2
	ror	eax, 2
	ror	eax, 2
	ror	eax, 2
	ror	eax, 2
	ror	eax, 2
	ror	eax, 2
	ror	eax, 2
	ror	eax, 2
	ror	eax, 2
	ror	eax, 2
	ror	eax, 2
	ror	eax, 2
	ror	eax, 2
	ror	eax, 2
	ror	eax, 2
	ror	eax, 2
	ror	eax, 2
	ror	eax, 2
	ror	eax, 2
	ror	eax, 2
	ror	eax, 2
	ror	eax, 2
	ror	eax, 2
	ror	eax, 2
	ror	eax, 2
	ror	eax, 2
	ror	eax, 2
	ror	eax, 2
	ror	eax, 2
	ror	eax, 2
	ror	eax, 2
	ror	eax, 2
	ror	eax, 2
	ror	eax, 2
	ror	eax, 2
	ror	eax, 2
	ror	eax, 2
	ror	eax, 2
	ror	eax, 2
	ror	eax, 2
	ror	eax, 2
	ror	eax, 2
	ror	eax, 2
	ror	eax, 2
	ror	eax, 2
	ror	eax, 2
	ror	eax, 2
	ror	eax, 2
	ror	eax, 2
	ror	eax, 2
	ror	eax, 2
	ror	eax, 2
	ror	eax, 2
	ror	eax, 2
	ror	eax, 2
	ror	eax, 2
	ror	eax, 2
	ror	eax, 2
	ror	eax, 2
	ror	eax, 2
	ror	eax, 2
	ror	eax, 2
	ror	eax, 2
	ror	eax, 2
	ror	eax, 2
	ror	eax, 2
	ror	eax, 2
	ror	eax, 2
	ror	eax, 2
	ror	eax, 2
	ror	eax, 2
	ror	eax, 2
	ror	eax, 2
	ror	eax, 2
	ror	eax, 2
	ror	eax, 2
	ror	eax, 2
	ror	eax, 2
	ror	eax, 2
	ror	eax, 2
	ror	eax, 2
	ror	eax, 2
	ror	eax, 2
	ror	eax, 2
	ror	eax, 2
	ror	eax, 2
	ror	eax, 2
	ror	eax, 2
	ror	eax, 2
	ror	eax, 2
	ror	eax, 2
	ror	eax, 2
	ror	eax, 2
	ror	eax, 2
	ror	eax, 2
	ror	eax, 2
	ror	eax, 2
	ror	eax, 2
	ror	eax, 2
	ror	eax, 2
	ror	eax, 2
	ror	eax, 2
	ror	eax, 2
	ror	eax, 2
	ror	eax, 2
	ror	eax, 2
	ror	eax, 2
	ror	eax, 2
	ror	eax, 2
	ror	eax, 2
	ror	eax, 2
	ror	eax, 2
	ror	eax, 2
	ror	eax, 2
	ror	eax, 2
	ror	eax, 2
	ror	eax, 2
	ror	eax, 2
	ror	eax, 2
	ror	eax, 2
	ror	eax, 2
	ror	eax, 2
	ror	eax, 2
	ror	eax, 2
	ror	eax, 2
	ror	eax, 2
	ror	eax, 2
	ror	eax, 2
	ror	eax, 2
	ror	eax, 2
	ror	eax, 2
	ror	eax, 2
	ror	eax, 2
	ror	eax, 2
	ror	eax, 2
	ror	eax, 2
	ror	eax, 2
	ror	eax, 2
	ror	eax, 2
	ror	eax, 2
	ror	eax, 2
	ror	eax, 2
	ror	eax, 2
	ror	eax, 2
	ror	eax, 2
	ror	eax, 2
	ror	eax, 2
	ror	eax, 2
	ror	eax, 2
	ror	eax, 2
	ror	eax, 2
	ror	eax, 2
	ror	eax, 2
	ror	eax, 2
	ror	eax, 2
	ror	eax, 2
	ror	eax, 2
	ror	eax, 2
	ror	eax, 2
	ror	eax, 2
	ror	eax, 2
	ror	eax, 2
	ror	eax, 2
	ror	eax, 2
	ror	eax, 2
	ror	eax, 2
	ror	eax, 2
	ror	eax, 2
	ror	eax, 2
	ror	eax, 2
	ror	eax, 2
	ror	eax, 2
	ror	eax, 2
	ror	eax, 2
	ror	eax, 2
	ror	eax, 2
	ror	eax, 2
	ror	eax, 2
	ror	eax, 2
	ror	eax, 2
	ror	eax, 2
	ror	eax, 2
	ror	eax, 2
	ror	eax, 2
	ror	eax, 2
	ror	eax, 2
	ror	eax, 2
	ror	eax, 2
	ror	eax, 2
	ror	eax, 2
	ror	eax, 2
	ror	eax, 2
	ror	eax, 2
	ror	eax, 2
	ror	eax, 2
	ror	eax, 2
	ror	eax, 2
	ror	eax, 2
	ror	eax, 2
	ror	eax, 2
	ror	eax, 2
	ror	eax, 2
	ror	eax, 2
	ror	eax, 2
	ror	eax, 2
	ror	eax, 2
	ror	eax, 2
	ror	eax, 2
	ror	eax, 2
	ror	eax, 2
	ror	eax, 2
	ror	eax, 2
	ror	eax, 2
	ror	eax, 2
	ror	eax, 2
	ror	eax, 2
	ror	eax, 2
	ror	eax, 2
	ror	eax, 2
	ror	eax, 2
	ror	eax, 2
	ror	eax, 2
	ror	eax, 2
	ror	eax, 2
	ror	eax, 2
	ror	eax, 2
	ror	eax, 2
	ror	eax, 2
	ror	eax, 2
	ror	eax, 2
	ror	eax, 2
	ror	eax, 2
	ror	eax, 2
	ror	eax, 2
	ror	eax, 2
	ror	eax, 2
	ror	eax, 2
	ror	eax, 2
	ror	eax, 2
	ror	eax, 2
	ror	eax, 2
	ror	eax, 2
	ror	eax, 2
	ror	eax, 2
	ror	eax, 2
	ror	eax, 2
	ror	eax, 2
	ror	eax, 2
	ror	eax, 2
	ror	eax, 2
	ror	eax, 2
	ror	eax, 2
	ror	eax, 2
	ror	eax, 2
	ror	eax, 2
	ror	eax, 2
	ror	eax, 2
	ror	eax, 2
	ror	eax, 2
	ror	eax, 2
	ror	eax, 2
	ror	eax, 2
	ror	eax, 2
	ror	eax, 2
	ror	eax, 2
	ror	eax, 2
	ror	eax, 2
	ror	eax, 2
	ror	eax, 2
	ror	eax, 2
	ror	eax, 2
	ror	eax, 2
	ror	eax, 2
	ror	eax, 2
	ror	eax, 2
	ror	eax, 2
	ror	eax, 2
	ror	eax, 2
	ror	eax, 2
	ror	eax, 2
	ror	eax, 2
	ror	eax, 2
	ror	eax, 2
	ror	eax, 2
	ror	eax, 2
	ror	eax, 2
	ror	eax, 2
	ror	eax, 2
	ror	eax, 2
	ror	eax, 2
	ror	eax, 2
	ror	eax, 2
	ror	eax, 2
	ror	eax, 2
	ror	eax, 2
	ror	eax, 2
	ror	eax, 2
	ror	eax, 2
	ror	eax, 2
	ror	eax, 2
	ror	eax, 2
	ror	eax, 2
	ror	eax, 2
	ror	eax, 2
	ror	eax, 2
	ror	eax, 2
	ror	eax, 2
	ror	eax, 2
	ror	eax, 2
	ror	eax, 2
	ror	eax, 2
	ror	eax, 2
	ror	eax, 2
	ror	eax, 2
	ror	eax, 2
	ror	eax, 2
	ror	eax, 2
	ror	eax, 2
	ror	eax, 2
	ror	eax, 2
	ror	eax, 2
	ror	eax, 2
	ror	eax, 2
	ror	eax, 2
	ror	eax, 2
	ror	eax, 2
	ror	eax, 2
	ror	eax, 2
	ror	eax, 2
	ror	eax, 2
	ror	eax, 2
	ror	eax, 2
	ror	eax, 2
	ror	eax, 2
	ror	eax, 2
	ror	eax, 2
	ror	eax, 2
	ror	eax, 2
	ror	eax, 2
	ror	eax, 2
	ror	eax, 2
	ror	eax, 2
	ror	eax, 2
	ror	eax, 2
	ror	eax, 2
	ror	eax, 2
	ror	eax, 2
	ror	eax, 2
	ror	eax, 2
	ror	eax, 2
	ror	eax, 2
	ror	eax, 2
	ror	eax, 2
	ror	eax, 2
	ror	eax, 2
	ror	eax, 2
	ror	eax, 2
	ror	eax, 2
	ror	eax, 2
	ror	eax, 2
	ror	eax, 2
	ror	eax, 2
	ror	eax, 2
	ror	eax, 2
	ror	eax, 2
	ror	eax, 2
	ror	eax, 2
	ror	eax, 2
	ror	eax, 2
	ror	eax, 2
	ror	eax, 2
	ror	eax, 2
	ror	eax, 2
	ror	eax, 2
	ror	eax, 2
	ror	eax, 2
	ror	eax, 2
	ror	eax, 2
	ror	eax, 2
	ror	eax, 2
	ror	eax, 2
	ror	eax, 2
	ror	eax, 2
	ror	eax, 2
	ror	eax, 2
	ror	eax, 2
	ror	eax, 2
	ror	eax, 2
	ror	eax, 2
	ror	eax, 2
	ror	eax, 2
	ror	eax, 2
	ror	eax, 2
	ror	eax, 2
	ror	eax, 2
	ror	eax, 2
	ror	eax, 2
	ror	eax, 2
	ror	eax, 2
	ror	eax, 2
	ror	eax, 2
	ror	eax, 2
	ror	eax, 2
	ror	eax, 2
	ror	eax, 2
	ror	eax, 2
	ror	eax, 2
	ror	eax, 2
	ror	eax, 2
	ror	eax, 2
	ror	eax, 2
	ror	eax, 2
	ror	eax, 2
	ror	eax, 2
	ror	eax, 2
	ror	eax, 2
	ror	eax, 2
	ror	eax, 2
	ror	eax, 2
	ror	eax, 2
	ror	eax, 2
	ror	eax, 2
	ror	eax, 2
	ror	eax, 2
	ror	eax, 2
	ror	eax, 2
	ror	eax, 2
	ror	eax, 2
	ror	eax, 2
	ror	eax, 2
	ror	eax, 2
	ror	eax, 2
	ror	eax, 2
	ror	eax, 2
	ror	eax, 2
	ror	eax, 2
	ror	eax, 2
	ror	eax, 2
	ror	eax, 2
	ror	eax, 2
	ror	eax, 2
	ror	eax, 2
	ror	eax, 2
	ror	eax, 2
	ror	eax, 2
	ror	eax, 2
	ror	eax, 2
	ror	eax, 2
	ror	eax, 2
	ror	eax, 2
	ror	eax, 2
	ror	eax, 2
	ror	eax, 2
	ror	eax, 2
	ror	eax, 2
	ror	eax, 2
	ror	eax, 2
	ror	eax, 2
	ror	eax, 2
	ror	eax, 2
	ror	eax, 2
	ror	eax, 2
	ror	eax, 2
	ror	eax, 2
	ror	eax, 2
	ror	eax, 2
	ror	eax, 2
	ror	eax, 2
	ror	eax, 2
	ror	eax, 2
	ror	eax, 2
	ror	eax, 2
	ror	eax, 2
	ror	eax, 2
	ror	eax, 2
	ror	eax, 2
	ror	eax, 2
	ror	eax, 2
	ror	eax, 2
	ror	eax, 2
	ror	eax, 2
	ror	eax, 2
	ror	eax, 2
	ror	eax, 2
	ror	eax, 2
	ror	eax, 2
	ror	eax, 2
	ror	eax, 2
	ror	eax, 2
	ror	eax, 2
	ror	eax, 2
	ror	eax, 2
	ror	eax, 2
	ror	eax, 2
	ror	eax, 2
	ror	eax, 2
	ror	eax, 2
	ror	eax, 2
	ror	eax, 2
	ror	eax, 2
	ror	eax, 2
	ror	eax, 2
	ror	eax, 2
	ror	eax, 2
	ror	eax, 2
	ror	eax, 2
	ror	eax, 2
	ror	eax, 2
	ror	eax, 2
	ror	eax, 2
	ror	eax, 2
	ror	eax, 2
	ror	eax, 2
	ror	eax, 2
	ror	eax, 2
	ror	eax, 2
	ror	eax, 2
	ror	eax, 2
	ror	eax, 2
	ror	eax, 2
	ror	eax, 2
	ror	eax, 2
	ror	eax, 2
	ror	eax, 2
	ror	eax, 2
	ror	eax, 2
	ror	eax, 2
	ror	eax, 2
	ror	eax, 2
	ror	eax, 2
	ror	eax, 2
	ror	eax, 2
	ror	eax, 2
	ror	eax, 2
	ror	eax, 2
	ror	eax, 2
	ror	eax, 2
	ror	eax, 2
	ror	eax, 2
	ror	eax, 2
	ror	eax, 2
	ror	eax, 2
	ror	eax, 2
	ror	eax, 2
	ror	eax, 2
	ror	eax, 2
	ror	eax, 2
	ror	eax, 2
	ror	eax, 2
	ror	eax, 2
	ror	eax, 2
	ror	eax, 2
	ror	eax, 2
	ror	eax, 2
	ror	eax, 2
	ror	eax, 2
	ror	eax, 2
	ror	eax, 2
	ror	eax, 2
	ror	eax, 2
	ror	eax, 2
	ror	eax, 2
	ror	eax, 2
	ror	eax, 2
	ror	eax, 2
	ror	eax, 2
	ror	eax, 2
	ror	eax, 2
	ror	eax, 2
	ror	eax, 2
	ror	eax, 2
	ror	eax, 2
	ror	eax, 2
	ror	eax, 2
	ror	eax, 2
	ror	eax, 2
	ror	eax, 2
	ror	eax, 2
	ror	eax, 2
	ror	eax, 2
	ror	eax, 2
	ror	eax, 2
	ror	eax, 2
	ror	eax, 2
	ror	eax, 2
	ror	eax, 2
	ror	eax, 2
	ror	eax, 2
	ror	eax, 2
	ror	eax, 2
	ror	eax, 2
	ror	eax, 2
	ror	eax, 2
	ror	eax, 2
	ror	eax, 2
	ror	eax, 2
	ror	eax, 2
	ror	eax, 2
	ror	eax, 2
	ror	eax, 2
	ror	eax, 2
	ror	eax, 2
	ror	eax, 2
	ror	eax, 2
	ror	eax, 2
	ror	eax, 2
	ror	eax, 2
	ror	eax, 2
	ror	eax, 2
	ror	eax, 2
	ror	eax, 2
	ror	eax, 2
	ror	eax, 2
	ror	eax, 2
	ror	eax, 2
	ror	eax, 2
	ror	eax, 2
	ror	eax, 2
	ror	eax, 2
	ror	eax, 2
	ror	eax, 2
	ror	eax, 2
	ror	eax, 2
	ror	eax, 2
	ror	eax, 2
	ror	eax, 2
	ror	eax, 2
	ror	eax, 2
	ror	eax, 2
	ror	eax, 2
	ror	eax, 2
	ror	eax, 2
	ror	eax, 2
	ror	eax, 2
	ror	eax, 2
	ror	eax, 2
	ror	eax, 2
	ror	eax, 2
	ror	eax, 2
	ror	eax, 2
	ror	eax, 2
	ror	eax, 2
	ror	eax, 2
	ror	eax, 2
	ror	eax, 2
	ror	eax, 2
	ror	eax, 2
	ror	eax, 2
	ror	eax, 2
	ror	eax, 2
	ror	eax, 2
	ror	eax, 2
	ror	eax, 2
	ror	eax, 2
	ror	eax, 2
	ror	eax, 2
	ror	eax, 2
	ror	eax, 2
	ror	eax, 2
	ror	eax, 2
	ror	eax, 2
	ror	eax, 2
	ror	eax, 2
	ror	eax, 2
	ror	eax, 2
	ror	eax, 2
	ror	eax, 2
	ror	eax, 2
	ror	eax, 2
	ror	eax, 2
	ror	eax, 2
	ror	eax, 2
	ror	eax, 2
	ror	eax, 2
	ror	eax, 2
	ror	eax, 2
	ror	eax, 2
	ror	eax, 2
	ror	eax, 2
	ror	eax, 2
	ror	eax, 2
	ror	eax, 2
	ror	eax, 2
	ror	eax, 2
	ror	eax, 2
	ror	eax, 2
	ror	eax, 2
	ror	eax, 2
	ror	eax, 2
	ror	eax, 2
	ror	eax, 2
	ror	eax, 2
	ror	eax, 2
	ror	eax, 2
	ror	eax, 2
	ror	eax, 2
	ror	eax, 2
	ror	eax, 2
	ror	eax, 2
	ror	eax, 2
	ror	eax, 2
	ror	eax, 2
	ror	eax, 2
	ror	eax, 2
	ror	eax, 2
	ror	eax, 2
	ror	eax, 2
	ror	eax, 2
	ror	eax, 2
	ror	eax, 2
	ror	eax, 2
	ror	eax, 2
	ror	eax, 2
	ror	eax, 2
	ror	eax, 2
	ror	eax, 2
	ror	eax, 2
	ror	eax, 2
	ror	eax, 2
	ror	eax, 2
	ror	eax, 2
	ror	eax, 2
	ror	eax, 2
	ror	eax, 2
	ror	eax, 2
	ror	eax, 2
	ror	eax, 2
	ror	eax, 2
	ror	eax, 2
	ror	eax, 2
	ror	eax, 2
	ror	eax, 2
	ror	eax, 2
	ror	eax, 2
	ror	eax, 2
	ror	eax, 2
	ror	eax, 2
	ror	eax, 2
	ror	eax, 2
	ror	eax, 2
	ror	eax, 2
	ror	eax, 2
	ror	eax, 2
	ror	eax, 2
	ror	eax, 2
	ror	eax, 2
	ror	eax, 2
	ror	eax, 2
	ror	eax, 2
	ror	eax, 2
	ror	eax, 2
	ror	eax, 2
	ror	eax, 2
	ror	eax, 2
	ror	eax, 2
	ror	eax, 2
	ror	eax, 2
	ror	eax, 2
	ror	eax, 2
	ror	eax, 2
	ror	eax, 2
	ror	eax, 2
	ror	eax, 2
	ror	eax, 2
	ror	eax, 2
	ror	eax, 2
	ror	eax, 2
	ror	eax, 2
	ror	eax, 2
	ror	eax, 2
	ror	eax, 2
	ror	eax, 2
	ror	eax, 2
	ror	eax, 2
	ror	eax, 2
	ror	eax, 2
	ror	eax, 2
	ror	eax, 2
	ror	eax, 2
	ror	eax, 2
	ror	eax, 2
	ror	eax, 2
	ror	eax, 2
	ror	eax, 2
	ror	eax, 2
	ror	eax, 2
	ror	eax, 2
	ror	eax, 2
	ror	eax, 2
	ror	eax, 2
	ror	eax, 2
	ror	eax, 2
	ror	eax, 2
	ror	eax, 2
	ror	eax, 2
	ror	eax, 2
	ror	eax, 2
	ror	eax, 2
	ror	eax, 2
	ror	eax, 2
	ror	eax, 2
	ror	eax, 2
	ror	eax, 2
	ror	eax, 2
	ror	eax, 2
	ror	eax, 2
	ror	eax, 2
	ror	eax, 2
	ror	eax, 2
	ror	eax, 2
	ror	eax, 2
	ror	eax, 2
	ror	eax, 2
	ror	eax, 2
	ror	eax, 2
	ror	eax, 2
	ror	eax, 2
	ror	eax, 2
	ror	eax, 2
	ror	eax, 2
	ror	eax, 2
	ror	eax, 2
	ror	eax, 2
	ror	eax, 2
	ror	eax, 2
	ror	eax, 2
	ror	eax, 2
	ror	eax, 2
	ror	eax, 2
	ror	eax, 2
	ror	eax, 2
	ror	eax, 2
	ror	eax, 2
	ror	eax, 2
	ror	eax, 2
	ror	eax, 2
	ror	eax, 2
	ror	eax, 2
	ror	eax, 2
	ror	eax, 2
	ror	eax, 2
	ror	eax, 2
	ror	eax, 2
	ror	eax, 2
	ror	eax, 2
	ror	eax, 2
	ror	eax, 2
	ror	eax, 2
	ror	eax, 2
	ror	eax, 2
	ror	eax, 2
	ror	eax, 2
	ror	eax, 2
	ror	eax, 2
	ror	eax, 2
	ror	eax, 2
	ror	eax, 2
	ror	eax, 2
	ror	eax, 2
	ror	eax, 2
	ror	eax, 2
	ror	eax, 2
	ror	eax, 2
	ror	eax, 2
	ror	eax, 2
	ror	eax, 2
	ror	eax, 2
	ror	eax, 2
	ror	eax, 2
	ror	eax, 2
	ror	eax, 2
	ror	eax, 2
	ror	eax, 2
	ror	eax, 2
	ror	eax, 2
	ror	eax, 2
	ror	eax, 2
	ror	eax, 2
	ror	eax, 2
	ror	eax, 2
	ror	eax, 2
	ror	eax, 2
	ror	eax, 2
	ror	eax, 2
	ror	eax, 2
	ror	eax, 2
	ror	eax, 2
	ror	eax, 2
	ror	eax, 2
	ror	eax, 2
	ror	eax, 2
	ror	eax, 2
	ror	eax, 2
	ror	eax, 2
	ror	eax, 2
	ror	eax, 2
	ror	eax, 2
	ror	eax, 2
	ror	eax, 2
	ror	eax, 2
	ror	eax, 2
	ror	eax, 2
	ror	eax, 2
	ror	eax, 2
	ror	eax, 2
	ror	eax, 2
	ror	eax, 2
	ror	eax, 2
	ror	eax, 2
	ror	eax, 2
	ror	eax, 2
	ror	eax, 2
	ror	eax, 2
	ror	eax, 2
	ror	eax, 2
	ror	eax, 2
	ror	eax, 2
	ror	eax, 2
	ror	eax, 2
	ror	eax, 2
	ror	eax, 2
	ror	eax, 2
	ror	eax, 2
	ror	eax, 2
	ror	eax, 2
	ror	eax, 2
	ror	eax, 2
	ror	eax, 2
	ror	eax, 2
	ror	eax, 2
	ror	eax, 2
	ror	eax, 2
	ror	eax, 2
	ror	eax, 2
	ror	eax, 2
	ror	eax, 2
	ror	eax, 2
	ror	eax, 2
	ror	eax, 2
	ror	eax, 2
	ror	eax, 2
	ror	eax, 2
	ror	eax, 2
	ror	eax, 2
	ror	eax, 2
	ror	eax, 2
	ror	eax, 2
	ror	eax, 2
	ror	eax, 2
	ror	eax, 2
	ror	eax, 2
	ror	eax, 2
	ror	eax, 2
	ror	eax, 2
	ror	eax, 2
	ror	eax, 2
	ror	eax, 2
	ror	eax, 2
	ror	eax, 2
	ror	eax, 2
	ror	eax, 2
	ror	eax, 2
	ror	eax, 2
	ror	eax, 2
	ror	eax, 2
	ror	eax, 2
	ror	eax, 2
	ror	eax, 2
	ror	eax, 2
	ror	eax, 2
	ror	eax, 2
	ror	eax, 2
	ror	eax, 2
	ror	eax, 2
	ror	eax, 2
	ror	eax, 2
	ror	eax, 2
	ror	eax, 2
	ror	eax, 2
	ror	eax, 2
	ror	eax, 2
	ror	eax, 2
	ror	eax, 2
	ror	eax, 2
	ror	eax, 2
	ror	eax, 2
	ror	eax, 2
	ror	eax, 2
	ror	eax, 2
	ror	eax, 2
	ror	eax, 2
	ror	eax, 2
	ror	eax, 2
	ror	eax, 2
	ror	eax, 2
	ror	eax, 2
	ror	eax, 2
	ror	eax, 2
	ror	eax, 2
	ror	eax, 2
	ror	eax, 2
	ror	eax, 2
	ror	eax, 2
	ror	eax, 2
	ror	eax, 2
	ror	eax, 2
	ror	eax, 2
	ror	eax, 2
	ror	eax, 2
	ror	eax, 2
	ror	eax, 2
	ror	eax, 2
	ror	eax, 2
	ror	eax, 2
	ror	eax, 2
	ror	eax, 2
	ror	eax, 2
	ror	eax, 2
	ror	eax, 2
	ror	eax, 2
	ror	eax, 2
	ror	eax, 2
	ror	eax, 2
	ror	eax, 2
	ror	eax, 2
	ror	eax, 2
	ror	eax, 2
	ror	eax, 2
	ror	eax, 2
	ror	eax, 2
	ror	eax, 2
	ror	eax, 2
	ror	eax, 2
	ror	eax, 2
	ror	eax, 2
	ror	eax, 2
	ror	eax, 2
	ror	eax, 2
	ror	eax, 2
	ror	eax, 2
	ror	eax, 2
	ror	eax, 2
	ror	eax, 2
	ror	eax, 2
	ror	eax, 2
	ror	eax, 2
	ror	eax, 2
	ror	eax, 2
	ror	eax, 2
	ror	eax, 2
	ror	eax, 2
	ror	eax, 2
	ror	eax, 2
	ror	eax, 2
	ror	eax, 2
	ror	eax, 2
	ror	eax, 2
	ror	eax, 2
	ror	eax, 2
	ror	eax, 2
	ror	eax, 2
	ror	eax, 2
	ror	eax, 2
	ror	eax, 2
	ror	eax, 2
	ror	eax, 2
	ror	eax, 2
	ror	eax, 2
	ror	eax, 2
	ror	eax, 2
	ror	eax, 2
	ror	eax, 2
	ror	eax, 2
	ror	eax, 2
	ror	eax, 2
	ror	eax, 2
	ror	eax, 2
	ror	eax, 2
	ror	eax, 2
	ror	eax, 2
	ror	eax, 2
	ror	eax, 2
	ror	eax, 2
	ror	eax, 2
	ror	eax, 2
	ror	eax, 2
	ror	eax, 2
	ror	eax, 2
	ror	eax, 2
	ror	eax, 2
	ror	eax, 2
	ror	eax, 2
	ror	eax, 2
	ror	eax, 2
	ror	eax, 2
	ror	eax, 2
	ror	eax, 2
	ror	eax, 2
	ror	eax, 2
	ror	eax, 2
	ror	eax, 2
	ror	eax, 2
	ror	eax, 2
	ror	eax, 2
	ror	eax, 2
	ror	eax, 2
	ror	eax, 2
	ror	eax, 2
	ror	eax, 2
	ror	eax, 2
	ror	eax, 2
	ror	eax, 2
	ror	eax, 2
	ror	eax, 2
	ror	eax, 2
	ror	eax, 2
	ror	eax, 2
	ror	eax, 2
	ror	eax, 2
	ror	eax, 2
	ror	eax, 2
	ror	eax, 2
	ror	eax, 2
	ror	eax, 2
	ror	eax, 2
	ror	eax, 2
	ror	eax, 2
	ror	eax, 2
	ror	eax, 2
	ror	eax, 2
	ror	eax, 2
	ror	eax, 2
	ror	eax, 2
	ror	eax, 2
	ror	eax, 2
	ror	eax, 2
	ror	eax, 2
	ror	eax, 2
	ror	eax, 2
	ror	eax, 2
	ror	eax, 2
	ror	eax, 2
	ror	eax, 2
	ror	eax, 2
	ror	eax, 2
	ror	eax, 2
	ror	eax, 2
	ror	eax, 2
	ror	eax, 2
	ror	eax, 2
	ror	eax, 2
	ror	eax, 2
	ror	eax, 2
	ror	eax, 2
	ror	eax, 2
	ror	eax, 2
	ror	eax, 2
	ror	eax, 2
	ror	eax, 2
	ror	eax, 2
	ror	eax, 2
	ror	eax, 2
	ror	eax, 2
	ror	eax, 2
	ror	eax, 2
	ror	eax, 2
	ror	eax, 2
	ror	eax, 2
	ror	eax, 2
	ror	eax, 2
	ror	eax, 2
	ror	eax, 2
	ror	eax, 2
	ror	eax, 2
	ror	eax, 2
	ror	eax, 2
	ror	eax, 2
	ror	eax, 2
	ror	eax, 2
	ror	eax, 2
	ror	eax, 2
	ror	eax, 2
	ror	eax, 2
	ror	eax, 2
	ror	eax, 2
	ror	eax, 2
	ror	eax, 2
	ror	eax, 2
	ror	eax, 2
	ror	eax, 2
	ror	eax, 2
	ror	eax, 2
	ror	eax, 2
	ror	eax, 2
	ror	eax, 2
	ror	eax, 2
	ror	eax, 2
	ror	eax, 2
	ror	eax, 2
	ror	eax, 2
	ror	eax, 2
	ror	eax, 2
	ror	eax, 2
	ror	eax, 2
	ror	eax, 2
	ror	eax, 2
	ror	eax, 2
	ror	eax, 2
	ror	eax, 2
	ror	eax, 2
	ror	eax, 2
	ror	eax, 2
	ror	eax, 2
	ror	eax, 2
	ror	eax, 2
	ror	eax, 2
	ror	eax, 2
	ror	eax, 2
	ror	eax, 2
	ror	eax, 2
	ror	eax, 2
	ror	eax, 2
	ror	eax, 2
	ror	eax, 2
	ror	eax, 2
	ror	eax, 2
	ror	eax, 2
	ror	eax, 2
	ror	eax, 2
	ror	eax, 2
	ror	eax, 2
	ror	eax, 2
	ror	eax, 2
	ror	eax, 2
	ror	eax, 2
	ror	eax, 2
	ror	eax, 2
	ror	eax, 2
	ror	eax, 2
	ror	eax, 2
	ror	eax, 2
	ror	eax, 2
	ror	eax, 2
	ror	eax, 2
	ror	eax, 2
	ror	eax, 2
	ror	eax, 2
	ror	eax, 2
	ror	eax, 2
	ror	eax, 2
	ror	eax, 2
	ror	eax, 2
	ror	eax, 2
	ror	eax, 2
	ror	eax, 2
	ror	eax, 2
	ror	eax, 2
	ror	eax, 2
	ror	eax, 2
	ror	eax, 2
	ror	eax, 2
	ror	eax, 2
	ror	eax, 2
	ror	eax, 2
	ror	eax, 2
	ror	eax, 2
	ror	eax, 2
	ror	eax, 2
	ror	eax, 2
	ror	eax, 2
	ror	eax, 2
	ror	eax, 2
	ror	eax, 2
	ror	eax, 2
	ror	eax, 2
	ror	eax, 2
	ror	eax, 2
	ror	eax, 2
	ror	eax, 2
	ror	eax, 2
	ror	eax, 2
	ror	eax, 2
	ror	eax, 2
	ror	eax, 2
	ror	eax, 2
	ror	eax, 2
	ror	eax, 2
	ror	eax, 2
	ror	eax, 2
	ror	eax, 2
	ror	eax, 2
	ror	eax, 2
	ror	eax, 2
	ror	eax, 2
	ror	eax, 2
	ror	eax, 2
	ror	eax, 2
	ror	eax, 2
	ror	eax, 2
	ror	eax, 2
	ror	eax, 2
	ror	eax, 2
	ror	eax, 2
	ror	eax, 2
	ror	eax, 2
	ror	eax, 2
	ror	eax, 2
	ror	eax, 2
	ror	eax, 2
	ror	eax, 2
	ror	eax, 2
	ror	eax, 2
	ror	eax, 2
	ror	eax, 2
	ror	eax, 2
	ror	eax, 2
	ror	eax, 2
	ror	eax, 2
	ror	eax, 2
	ror	eax, 2
	ror	eax, 2
	ror	eax, 2
	ror	eax, 2
	ror	eax, 2
	ror	eax, 2
	ror	eax, 2
	ror	eax, 2
	ror	eax, 2
	ror	eax, 2
	ror	eax, 2
	ror	eax, 2
	ror	eax, 2
	ror	eax, 2
	ror	eax, 2
	ror	eax, 2
	ror	eax, 2
	ror	eax, 2
	ror	eax, 2
	ror	eax, 2
	ror	eax, 2
	ror	eax, 2
	ror	eax, 2
	ror	eax, 2
	ror	eax, 2
	ror	eax, 2
	ror	eax, 2
	ror	eax, 2
	ror	eax, 2
	ror	eax, 2
	ror	eax, 2
	ror	eax, 2
	ror	eax, 2
	ror	eax, 2
	ror	eax, 2
	ror	eax, 2
	ror	eax, 2
	ror	eax, 2
	ror	eax, 2
	ror	eax, 2
	ror	eax, 2
	ror	eax, 2
	ror	eax, 2
	ror	eax, 2
	ror	eax, 2
	ror	eax, 2
	ror	eax, 2
	ror	eax, 2
	ror	eax, 2
	ror	eax, 2
	ror	eax, 2
	ror	eax, 2
	ror	eax, 2
	ror	eax, 2
	ror	eax, 2
	ror	eax, 2
	ror	eax, 2
	ror	eax, 2
	ror	eax, 2
	ror	eax, 2
	ror	eax, 2
	ror	eax, 2
	ror	eax, 2
	ror	eax, 2
	ror	eax, 2
	ror	eax, 2
	ror	eax, 2
	ror	eax, 2
	ror	eax, 2
	ror	eax, 2
	ror	eax, 2
	ror	eax, 2
	ror	eax, 2
	ror	eax, 2
	ror	eax, 2
	ror	eax, 2
	ror	eax, 2
	ror	eax, 2
	ror	eax, 2
	ror	eax, 2
	ror	eax, 2
	ror	eax, 2
	ror	eax, 2
	ror	eax, 2
	ror	eax, 2
	ror	eax, 2
	ror	eax, 2
	ror	eax, 2
	ror	eax, 2
	ror	eax, 2
	ror	eax, 2
	ror	eax, 2
	ror	eax, 2
	ror	eax, 2
	ror	eax, 2
	ror	eax, 2
	ror	eax, 2
	ror	eax, 2
	ror	eax, 2
	ror	eax, 2
	ror	eax, 2
	ror	eax, 2
	ror	eax, 2
	ror	eax, 2
	ror	eax, 2
	ror	eax, 2
	ror	eax, 2
	ror	eax, 2
	ror	eax, 2
	ror	eax, 2
	ror	eax, 2
	ror	eax, 2
	ror	eax, 2
	ror	eax, 2
	ror	eax, 2
	ror	eax, 2
	ror	eax, 2
	ror	eax, 2
	ror	eax, 2
	ror	eax, 2
	ror	eax, 2
	ror	eax, 2
	ror	eax, 2
	ror	eax, 2
	ror	eax, 2
	ror	eax, 2
	ror	eax, 2
	ror	eax, 2
	ror	eax, 2
	ror	eax, 2
	ror	eax, 2
	ror	eax, 2
	ror	eax, 2
	ror	eax, 2
	ror	eax, 2
	ror	eax, 2
	ror	eax, 2
	ror	eax, 2
	ror	eax, 2
	ror	eax, 2
	ror	eax, 2
	ror	eax, 2
	ror	eax, 2
	ror	eax, 2
	ror	eax, 2
	ror	eax, 2
	ror	eax, 2
	ror	eax, 2
	ror	eax, 2
	ror	eax, 2
	ror	eax, 2
	ror	eax, 2
	ror	eax, 2
	ror	eax, 2
	ror	eax, 2
	ror	eax, 2
	ror	eax, 2
	ror	eax, 2
	ror	eax, 2
	ror	eax, 2
	ror	eax, 2
	ror	eax, 2
	ror	eax, 2
	ror	eax, 2
	ror	eax, 2
	ror	eax, 2
	ror	eax, 2
	ror	eax, 2
	ror	eax, 2
	ror	eax, 2
	ror	eax, 2
	ror	eax, 2
	ror	eax, 2
	ror	eax, 2
	ror	eax, 2
	ror	eax, 2
	ror	eax, 2
	ror	eax, 2
	ror	eax, 2
	ror	eax, 2
	ror	eax, 2
	ror	eax, 2
	ror	eax, 2
	ror	eax, 2
	ror	eax, 2
	ror	eax, 2
	ror	eax, 2
	ror	eax, 2
	ror	eax, 2
	ror	eax, 2
	ror	eax, 2
	ror	eax, 2
	ror	eax, 2
	ror	eax, 2
	ror	eax, 2
	ror	eax, 2
	ror	eax, 2
	ror	eax, 2
	ror	eax, 2
	ror	eax, 2
	ror	eax, 2
	ror	eax, 2
	ror	eax, 2
	ror	eax, 2
	ror	eax, 2
	ror	eax, 2
	ror	eax, 2
	ror	eax, 2
	ror	eax, 2
	ror	eax, 2
	ror	eax, 2
	ror	eax, 2
	ror	eax, 2
	ror	eax, 2
	ror	eax, 2
	ror	eax, 2
	ror	eax, 2
	ror	eax, 2
	ror	eax, 2
	ror	eax, 2
	ror	eax, 2
	ror	eax, 2
	ror	eax, 2
	ror	eax, 2
	ror	eax, 2
	ror	eax, 2
	ror	eax, 2
	ror	eax, 2
	ror	eax, 2
	ror	eax, 2
	ror	eax, 2
	ror	eax, 2
	ror	eax, 2
	ror	eax, 2
	ror	eax, 2
	ror	eax, 2
	ror	eax, 2
	ror	eax, 2
	ror	eax, 2
	ror	eax, 2
	ror	eax, 2
	ror	eax, 2
	ror	eax, 2
	ror	eax, 2
	ror	eax, 2
	ror	eax, 2
	ror	eax, 2
	ror	eax, 2
	ror	eax, 2
	ror	eax, 2
	ror	eax, 2
	ror	eax, 2
	ror	eax, 2
	ror	eax, 2
	ror	eax, 2
	ror	eax, 2
	ror	eax, 2
	ror	eax, 2
	ror	eax, 2
	ror	eax, 2
	ror	eax, 2
	ror	eax, 2
	ror	eax, 2
	ror	eax, 2
	ror	eax, 2
	ror	eax, 2
	ror	eax, 2
	ror	eax, 2
	ror	eax, 2
	ror	eax, 2
	ror	eax, 2
	ror	eax, 2
	ror	eax, 2
	ror	eax, 2
	ror	eax, 2
	ror	eax, 2
	ror	eax, 2
	ror	eax, 2
	ror	eax, 2
	ror	eax, 2
	ror	eax, 2
	ror	eax, 2
	ror	eax, 2
	ror	eax, 2
	ror	eax, 2
	ror	eax, 2
	ror	eax, 2
	ror	eax, 2
	ror	eax, 2
	ror	eax, 2
	ror	eax, 2
	ror	eax, 2
	ror	eax, 2
	ror	eax, 2
	ror	eax, 2
	ror	eax, 2
	ror	eax, 2
	ror	eax, 2
	ror	eax, 2
	ror	eax, 2
	ror	eax, 2
	ror	eax, 2
	ror	eax, 2
	ror	eax, 2
	ror	eax, 2
	ror	eax, 2
	ror	eax, 2
	ror	eax, 2
	ror	eax, 2
	ror	eax, 2
	ror	eax, 2
	ror	eax, 2
	ror	eax, 2
	ror	eax, 2
	ror	eax, 2
	ror	eax, 2
	ror	eax, 2
	ror	eax, 2
	ror	eax, 2
	ror	eax, 2
	ror	eax, 2
	ror	eax, 2
	ror	eax, 2
	ror	eax, 2
	ror	eax, 2
	ror	eax, 2
	ror	eax, 2
	ror	eax, 2
	ror	eax, 2
	ror	eax, 2
	ror	eax, 2
	ror	eax, 2
	ror	eax, 2
	ror	eax, 2
	ror	eax, 2
	ror	eax, 2
	ror	eax, 2
	ror	eax, 2
	ror	eax, 2
	ror	eax, 2
	ror	eax, 2
	ror	eax, 2
	ror	eax, 2
	ror	eax, 2
	ror	eax, 2
	ror	eax, 2
	ror	eax, 2
	ror	eax, 2
	ror	eax, 2
	ror	eax, 2
	ror	eax, 2
	ror	eax, 2
	ror	eax, 2
	ror	eax, 2
	ror	eax, 2
	ror	eax, 2
	ror	eax, 2
	ror	eax, 2
	ror	eax, 2
	ror	eax, 2
	ror	eax, 2
	ror	eax, 2
	ror	eax, 2
	ror	eax, 2
	ror	eax, 2
	ror	eax, 2
	ror	eax, 2
	ror	eax, 2
	ror	eax, 2
	ror	eax, 2
	ror	eax, 2
	ror	eax, 2
	ror	eax, 2
	ror	eax, 2
	ror	eax, 2
	ror	eax, 2
	ror	eax, 2
	ror	eax, 2
	ror	eax, 2
	ror	eax, 2
	ror	eax, 2
	ror	eax, 2
	ror	eax, 2
	ror	eax, 2
	ror	eax, 2
	ror	eax, 2
	ror	eax, 2
	ror	eax, 2
	ror	eax, 2
	ror	eax, 2
	ror	eax, 2
	ror	eax, 2
	ror	eax, 2
	ror	eax, 2
	ror	eax, 2
	ror	eax, 2
	ror	eax, 2
	ror	eax, 2
	ror	eax, 2
	ror	eax, 2
	ror	eax, 2
	ror	eax, 2
	ror	eax, 2
	ror	eax, 2
	ror	eax, 2
	ror	eax, 2
	ror	eax, 2
	ror	eax, 2
	ror	eax, 2
	ror	eax, 2
	ror	eax, 2
	ror	eax, 2
	ror	eax, 2
	ror	eax, 2
	ror	eax, 2
	ror	eax, 2
	ror	eax, 2
	ror	eax, 2
	ror	eax, 2
	ror	eax, 2
	ror	eax, 2
	ror	eax, 2
	ror	eax, 2
	ror	eax, 2
	ror	eax, 2
	ror	eax, 2
	ror	eax, 2
	ror	eax, 2
	ror	eax, 2
	ror	eax, 2
	ror	eax, 2
	ror	eax, 2
	ror	eax, 2
	ror	eax, 2
	ror	eax, 2
	ror	eax, 2
	ror	eax, 2
	ror	eax, 2
	ror	eax, 2
	ror	eax, 2
	ror	eax, 2
	ror	eax, 2
	ror	eax, 2
	ror	eax, 2
	ror	eax, 2
	ror	eax, 2
	ror	eax, 2
	ror	eax, 2
	ror	eax, 2
	ror	eax, 2
	ror	eax, 2
	ror	eax, 2
	ror	eax, 2
	ror	eax, 2
	ror	eax, 2
	ror	eax, 2
	ror	eax, 2
	ror	eax, 2
	ror	eax, 2
	ror	eax, 2
	ror	eax, 2
	ror	eax, 2
	ror	eax, 2
	ror	eax, 2
	ror	eax, 2
	ror	eax, 2
	ror	eax, 2
	ror	eax, 2
	ror	eax, 2
	ror	eax, 2
	ror	eax, 2
	ror	eax, 2
	ror	eax, 2
	ror	eax, 2
	ror	eax, 2
	ror	eax, 2
	ror	eax, 2
	ror	eax, 2
	ror	eax, 2
	ror	eax, 2
	ror	eax, 2
	ror	eax, 2
	ror	eax, 2
	ror	eax, 2
	ror	eax, 2
	ror	eax, 2
	ror	eax, 2
	ror	eax, 2
	ror	eax, 2
	ror	eax, 2
	ror	eax, 2
	ror	eax, 2
	ror	eax, 2
	ror	eax, 2
	ror	eax, 2
	ror	eax, 2
	ror	eax, 2
	ror	eax, 2
	ror	eax, 2
	ror	eax, 2
	ror	eax, 2
	ror	eax, 2
	ror	eax, 2
	ror	eax, 2
	ror	eax, 2
	ror	eax, 2
	ror	eax, 2
	ror	eax, 2
	ror	eax, 2
	ror	eax, 2
	ror	eax, 2
	ror	eax, 2
	ror	eax, 2
	ror	eax, 2
	ror	eax, 2
	ror	eax, 2
	ror	eax, 2
	ror	eax, 2
	ror	eax, 2
	ror	eax, 2
	ror	eax, 2
	ror	eax, 2
	ror	eax, 2
	ror	eax, 2
	ror	eax, 2
	ror	eax, 2
	ror	eax, 2
	ror	eax, 2
	ror	eax, 2
	ror	eax, 2
	ror	eax, 2
	ror	eax, 2
	ror	eax, 2
	ror	eax, 2
	ror	eax, 2
	ror	eax, 2
	ror	eax, 2
	ror	eax, 2
	ror	eax, 2
	ror	eax, 2
	ror	eax, 2
	ror	eax, 2
	ror	eax, 2
	ror	eax, 2
	ror	eax, 2
	ror	eax, 2
	ror	eax, 2
	ror	eax, 2
	ror	eax, 2
	ror	eax, 2
	ror	eax, 2
	ror	eax, 2
	ror	eax, 2
	ror	eax, 2
	ror	eax, 2
	ror	eax, 2
	ror	eax, 2
	ror	eax, 2
	ror	eax, 2
	ror	eax, 2
	ror	eax, 2
	ror	eax, 2
	ror	eax, 2
	ror	eax, 2
	ror	eax, 2
	ror	eax, 2
	ror	eax, 2
	ror	eax, 2
	ror	eax, 2
	ror	eax, 2
	ror	eax, 2
	ror	eax, 2
	ror	eax, 2
	ror	eax, 2
	ror	eax, 2
	ror	eax, 2
	ror	eax, 2
	ror	eax, 2
	ror	eax, 2
	ror	eax, 2
	ror	eax, 2
	ror	eax, 2
	ror	eax, 2
	ror	eax, 2
	ror	eax, 2
	ror	eax, 2
	ror	eax, 2
	ror	eax, 2
	ror	eax, 2
	ror	eax, 2
	ror	eax, 2
	ror	eax, 2
	ror	eax, 2
	ror	eax, 2
	ror	eax, 2
	ror	eax, 2
	ror	eax, 2
	ror	eax, 2
	ror	eax, 2
	ror	eax, 2
	ror	eax, 2
	ror	eax, 2
	ror	eax, 2
	ror	eax, 2
	ror	eax, 2
	ror	eax, 2
	ror	eax, 2
	ror	eax, 2
	ror	eax, 2
	ror	eax, 2
	ror	eax, 2
	ror	eax, 2
	ror	eax, 2
	ror	eax, 2
	ror	eax, 2
	ror	eax, 2
	ror	eax, 2
	ror	eax, 2
	ror	eax, 2
	ror	eax, 2
	ror	eax, 2
	ror	eax, 2
	ror	eax, 2
	ror	eax, 2
	ror	eax, 2
	ror	eax, 2
	ror	eax, 2
	ror	eax, 2
	ror	eax, 2
	ror	eax, 2
	ror	eax, 2
	ror	eax, 2
	ror	eax, 2
	ror	eax, 2
	ror	eax, 2
	ror	eax, 2
	ror	eax, 2
	ror	eax, 2
	ror	eax, 2
	ror	eax, 2
	ror	eax, 2
	ror	eax, 2
	ror	eax, 2
	ror	eax, 2
	ror	eax, 2
	ror	eax, 2
	ror	eax, 2
	ror	eax, 2
	ror	eax, 2
	ror	eax, 2
	ror	eax, 2
	ror	eax, 2
	ror	eax, 2
	ror	eax, 2
	ror	eax, 2
	ror	eax, 2
	ror	eax, 2
	ror	eax, 2
	ror	eax, 2
	ror	eax, 2
	ror	eax, 2
	ror	eax, 2
	ror	eax, 2
	ror	eax, 2
	ror	eax, 2
	ror	eax, 2
	ror	eax, 2
	ror	eax, 2
	ror	eax, 2
	ror	eax, 2
	ror	eax, 2
	ror	eax, 2
	ror	eax, 2
	ror	eax, 2
	ror	eax, 2
	ror	eax, 2
	ror	eax, 2
	ror	eax, 2
	ror	eax, 2
	ror	eax, 2
	ror	eax, 2
	ror	eax, 2
	ror	eax, 2
	ror	eax, 2
	ror	eax, 2
	ror	eax, 2
	ror	eax, 2
	ror	eax, 2
	ror	eax, 2
	ror	eax, 2
	ror	eax, 2
	ror	eax, 2
	ror	eax, 2
	ror	eax, 2
	ror	eax, 2
	ror	eax, 2
	ror	eax, 2
	ror	eax, 2
	ror	eax, 2
	ror	eax, 2
	ror	eax, 2
	ror	eax, 2
	ror	eax, 2
	ror	eax, 2
	ror	eax, 2
	ror	eax, 2
	ror	eax, 2
	ror	eax, 2
	ror	eax, 2
	ror	eax, 2
	ror	eax, 2
	ror	eax, 2
	ror	eax, 2
	ror	eax, 2
	ror	eax, 2
	ror	eax, 2
	ror	eax, 2
	ror	eax, 2
	ror	eax, 2
	ror	eax, 2
	ror	eax, 2
	ror	eax, 2
	ror	eax, 2
	ror	eax, 2
	ror	eax, 2
	ror	eax, 2
	ror	eax, 2
	ror	eax, 2
	ror	eax, 2
	ror	eax, 2
	ror	eax, 2
	ror	eax, 2
	ror	eax, 2
	ror	eax, 2
	ror	eax, 2
	ror	eax, 2
	ror	eax, 2
	ror	eax, 2
	ror	eax, 2
	ror	eax, 2
	ror	eax, 2
	ror	eax, 2
	ror	eax, 2
	ror	eax, 2
	ror	eax, 2
	ror	eax, 2
	ror	eax, 2
	ror	eax, 2
	ror	eax, 2
	ror	eax, 2
	ror	eax, 2
	ror	eax, 2
	ror	eax, 2
	ror	eax, 2
	ror	eax, 2
	ror	eax, 2
	ror	eax, 2
	ror	eax, 2
	ror	eax, 2
	ror	eax, 2
	ror	eax, 2
	ror	eax, 2
	ror	eax, 2
	ror	eax, 2
	ror	eax, 2
	ror	eax, 2
	ror	eax, 2
	ror	eax, 2
	ror	eax, 2
	ror	eax, 2
	ror	eax, 2
	ror	eax, 2
	ror	eax, 2
	ror	eax, 2
	ror	eax, 2
	ror	eax, 2
	ror	eax, 2
	ror	eax, 2
	ror	eax, 2
	ror	eax, 2
	ror	eax, 2
	ror	eax, 2
	ror	eax, 2
	ror	eax, 2
	ror	eax, 2
	ror	eax, 2
	ror	eax, 2
	ror	eax, 2
	ror	eax, 2
	ror	eax, 2
	ror	eax, 2
	ror	eax, 2
	ror	eax, 2
	ror	eax, 2
	ror	eax, 2
	ror	eax, 2
	ror	eax, 2
	ror	eax, 2
	ror	eax, 2
	ror	eax, 2
	ror	eax, 2
	ror	eax, 2
	ror	eax, 2
	ror	eax, 2
	ror	eax, 2
	ror	eax, 2
	ror	eax, 2
	ror	eax, 2
	ror	eax, 2
	ror	eax, 2
	ror	eax, 2
	ror	eax, 2
	ror	eax, 2
	ror	eax, 2
	ror	eax, 2
	ror	eax, 2
	ror	eax, 2
	ror	eax, 2
	ror	eax, 2
	ror	eax, 2
	ror	eax, 2
	ror	eax, 2
	ror	eax, 2
	ror	eax, 2
	ror	eax, 2
	ror	eax, 2
	ror	eax, 2
	ror	eax, 2
	ror	eax, 2
	ror	eax, 2
	ror	eax, 2
	ror	eax, 2
	ror	eax, 2
	ror	eax, 2
	ror	eax, 2
	ror	eax, 2
	ror	eax, 2
	ror	eax, 2
	ror	eax, 2
	ror	eax, 2
	ror	eax, 2
	ror	eax, 2
	ror	eax, 2
	ror	eax, 2
	ror	eax, 2
	ror	eax, 2
	ror	eax, 2
	ror	eax, 2
	ror	eax, 2
	ror	eax, 2
	ror	eax, 2
	ror	eax, 2
	ror	eax, 2
	ror	eax, 2
	ror	eax, 2
	ror	eax, 2
	ror	eax, 2
	ror	eax, 2
	ror	eax, 2
	ror	eax, 2
	ror	eax, 2
	ror	eax, 2
	ror	eax, 2
	ror	eax, 2
	ror	eax, 2
	ror	eax, 2
	ror	eax, 2
	ror	eax, 2
	ror	eax, 2
	ror	eax, 2
	ror	eax, 2
	ror	eax, 2
	ror	eax, 2
	ror	eax, 2
	ror	eax, 2
	ror	eax, 2
	ror	eax, 2
	ror	eax, 2
	ror	eax, 2
	ror	eax, 2
	ror	eax, 2
	ror	eax, 2
	ror	eax, 2
	ror	eax, 2
	ror	eax, 2
	ror	eax, 2
	ror	eax, 2
	ror	eax, 2
	ror	eax, 2
	ror	eax, 2
	ror	eax, 2
	ror	eax, 2
	ror	eax, 2
	ror	eax, 2
	ror	eax, 2
	ror	eax, 2
	ror	eax, 2
	ror	eax, 2
	ror	eax, 2
	ror	eax, 2
	ror	eax, 2
	ror	eax, 2
	ror	eax, 2
	ror	eax, 2
	ror	eax, 2
	ror	eax, 2
	ror	eax, 2
	ror	eax, 2
	ror	eax, 2
	ror	eax, 2
	ror	eax, 2
	ror	eax, 2
	ror	eax, 2
	ror	eax, 2
	ror	eax, 2
	ror	eax, 2
	ror	eax, 2
	ror	eax, 2
	ror	eax, 2
	ror	eax, 2
	ror	eax, 2
	ror	eax, 2
	ror	eax, 2
	ror	eax, 2
	ror	eax, 2
	ror	eax, 2
	ror	eax, 2
	ror	eax, 2
	ror	eax, 2
	ror	eax, 2
	ror	eax, 2
	ror	eax, 2
	ror	eax, 2
	ror	eax, 2
	ror	eax, 2
	ror	eax, 2
	ror	eax, 2
	ror	eax, 2
	ror	eax, 2
	ror	eax, 2
	ror	eax, 2
	ror	eax, 2
	ror	eax, 2
	ror	eax, 2
	ror	eax, 2
	ror	eax, 2
	ror	eax, 2
	ror	eax, 2
	ror	eax, 2
	ror	eax, 2
	ror	eax, 2
	ror	eax, 2
	ror	eax, 2
	ror	eax, 2
	ror	eax, 2
	ror	eax, 2
	ror	eax, 2
	ror	eax, 2
	ror	eax, 2
	ror	eax, 2
	ror	eax, 2
	ror	eax, 2
	ror	eax, 2
	ror	eax, 2
	ror	eax, 2
	ror	eax, 2
	ror	eax, 2
	ror	eax, 2
	ror	eax, 2
	ror	eax, 2
	ror	eax, 2
	ror	eax, 2
	ror	eax, 2
	ror	eax, 2
	ror	eax, 2
	ror	eax, 2
	ror	eax, 2
	ror	eax, 2
	ror	eax, 2
	ror	eax, 2
	ror	eax, 2
	ror	eax, 2
	ror	eax, 2
	ror	eax, 2
	ror	eax, 2
	ror	eax, 2
	ror	eax, 2
	ror	eax, 2
	ror	eax, 2
	ror	eax, 2
	ror	eax, 2
	ror	eax, 2
	ror	eax, 2
	ror	eax, 2
	ror	eax, 2
	ror	eax, 2
	ror	eax, 2
	ror	eax, 2
	ror	eax, 2
	ror	eax, 2
	ror	eax, 2
	ror	eax, 2
	ror	eax, 2
	ror	eax, 2
	ror	eax, 2
	ror	eax, 2
	ror	eax, 2
	ror	eax, 2
	ror	eax, 2
	ror	eax, 2
	ror	eax, 2
	ror	eax, 2
	ror	eax, 2
	ror	eax, 2
	ror	eax, 2
	ror	eax, 2
	ror	eax, 2
	ror	eax, 2
	ror	eax, 2
	ror	eax, 2
	ror	eax, 2
	ror	eax, 2
	ror	eax, 2
	ror	eax, 2
	ror	eax, 2
	ror	eax, 2
	ror	eax, 2
	ror	eax, 2
	ror	eax, 2
	ror	eax, 2
	ror	eax, 2
	ror	eax, 2
	ror	eax, 2
	ror	eax, 2
	ror	eax, 2
	ror	eax, 2
	ror	eax, 2
	ror	eax, 2
	ror	eax, 2
	ror	eax, 2
	ror	eax, 2
	ror	eax, 2
	ror	eax, 2
	ror	eax, 2
	ror	eax, 2
	ror	eax, 2
	ror	eax, 2
	ror	eax, 2
	ror	eax, 2
	ror	eax, 2
	ror	eax, 2
	ror	eax, 2
	ror	eax, 2
	ror	eax, 2
	ror	eax, 2
	ror	eax, 2
	ror	eax, 2
	ror	eax, 2
	ror	eax, 2
	ror	eax, 2
	ror	eax, 2
	ror	eax, 2
	ror	eax, 2
	ror	eax, 2
	ror	eax, 2
	ror	eax, 2
	ror	eax, 2
	ror	eax, 2
	ror	eax, 2
	ror	eax, 2
	ror	eax, 2
	ror	eax, 2
	ror	eax, 2
	ror	eax, 2
	ror	eax, 2
	ror	eax, 2
	ror	eax, 2
	ror	eax, 2
	ror	eax, 2
	ror	eax, 2
	ror	eax, 2
	ror	eax, 2
	ror	eax, 2
	ror	eax, 2
	ror	eax, 2
	ror	eax, 2
	ror	eax, 2
	ror	eax, 2
	ror	eax, 2
	ror	eax, 2
	ror	eax, 2
	ror	eax, 2
	ror	eax, 2
	ror	eax, 2
	ror	eax, 2
	ror	eax, 2
	ror	eax, 2
	ror	eax, 2
	ror	eax, 2
	ror	eax, 2
	ror	eax, 2
	ror	eax, 2
	ror	eax, 2
	ror	eax, 2
	ror	eax, 2
	ror	eax, 2
	ror	eax, 2
	ror	eax, 2
	ror	eax, 2
	ror	eax, 2
	ror	eax, 2
	ror	eax, 2
	ror	eax, 2
	ror	eax, 2
	ror	eax, 2
	ror	eax, 2
	ror	eax, 2
	ror	eax, 2
	ror	eax, 2
	ror	eax, 2
	ror	eax, 2
	ror	eax, 2
	ror	eax, 2
	ror	eax, 2
	ror	eax, 2
	ror	eax, 2
	ror	eax, 2
	ror	eax, 2
	ror	eax, 2
	ror	eax, 2
	ror	eax, 2
	ror	eax, 2
	ror	eax, 2
	ror	eax, 2
	ror	eax, 2
	ror	eax, 2
	ror	eax, 2
	ror	eax, 2
	ror	eax, 2
	ror	eax, 2
	ror	eax, 2
	ror	eax, 2
	ror	eax, 2
	ror	eax, 2
	ror	eax, 2
	ror	eax, 2
	ror	eax, 2
	ror	eax, 2
	ror	eax, 2
	ror	eax, 2
	ror	eax, 2
	ror	eax, 2
	ror	eax, 2
	ror	eax, 2
	ror	eax, 2
	ror	eax, 2
	ror	eax, 2
	ror	eax, 2
	ror	eax, 2
	ror	eax, 2
	ror	eax, 2
	ror	eax, 2
	ror	eax, 2
	ror	eax, 2
	ror	eax, 2
	ror	eax, 2
	ror	eax, 2
	ror	eax, 2
	ror	eax, 2
	ror	eax, 2
	ror	eax, 2
	ror	eax, 2
	ror	eax, 2
	ror	eax, 2
	ror	eax, 2
	ror	eax, 2
	ror	eax, 2
	ror	eax, 2
	ror	eax, 2
	ror	eax, 2
	ror	eax, 2
	ror	eax, 2
	ror	eax, 2
	ror	eax, 2
	ror	eax, 2
	ror	eax, 2
	ror	eax, 2
	ror	eax, 2
	ror	eax, 2
	ror	eax, 2
	ror	eax, 2
	ror	eax, 2
	ror	eax, 2
	ror	eax, 2
	ror	eax, 2
	ror	eax, 2
	ror	eax, 2
	ror	eax, 2
	ror	eax, 2
	ror	eax, 2
	ror	eax, 2
	ror	eax, 2
	ror	eax, 2
	ror	eax, 2
	ror	eax, 2
	ror	eax, 2
	ror	eax, 2
	ror	eax, 2
	ror	eax, 2
	ror	eax, 2
	ror	eax, 2
	ror	eax, 2
	ror	eax, 2
	ror	eax, 2
	ror	eax, 2
	ror	eax, 2
	ror	eax, 2
	ror	eax, 2
	ror	eax, 2
	ror	eax, 2
	ror	eax, 2
	ror	eax, 2
	ror	eax, 2
	ror	eax, 2
	ror	eax, 2
	ror	eax, 2
	ror	eax, 2
	ror	eax, 2
	ror	eax, 2
	ror	eax, 2
	ror	eax, 2
	ror	eax, 2
	ror	eax, 2
	ror	eax, 2
	ror	eax, 2
	ror	eax, 2
	ror	eax, 2
	ror	eax, 2
	ror	eax, 2
	ror	eax, 2
	ror	eax, 2
	ror	eax, 2
	ror	eax, 2
	ror	eax, 2
	ror	eax, 2
	ror	eax, 2
	ror	eax, 2
	ror	eax, 2
	ror	eax, 2
	ror	eax, 2
	ror	eax, 2
	ror	eax, 2
	ror	eax, 2
	ror	eax, 2
	ror	eax, 2
	ror	eax, 2
	ror	eax, 2
	ror	eax, 2
	ror	eax, 2
	ror	eax, 2
	ror	eax, 2
	ror	eax, 2
	ror	eax, 2
	ror	eax, 2
	ror	eax, 2
	ror	eax, 2
	ror	eax, 2
	ror	eax, 2
	ror	eax, 2
	ror	eax, 2
	ror	eax, 2
	ror	eax, 2
	ror	eax, 2
	ror	eax, 2
	ror	eax, 2
	ror	eax, 2
	ror	eax, 2
	ror	eax, 2
	ror	eax, 2
	ror	eax, 2
	ror	eax, 2
	ror	eax, 2
	ror	eax, 2
	ror	eax, 2
	ror	eax, 2
	ror	eax, 2
	ror	eax, 2
	ror	eax, 2
	ror	eax, 2
	ror	eax, 2
	ror	eax, 2
	ror	eax, 2
	ror	eax, 2
	ror	eax, 2
	ror	eax, 2
	ror	eax, 2
	ror	eax, 2
	ror	eax, 2
	ror	eax, 2
	ror	eax, 2
	ror	eax, 2
	ror	eax, 2
	ror	eax, 2
	ror	eax, 2
	ror	eax, 2
	ror	eax, 2
	ror	eax, 2
	ror	eax, 2
	ror	eax, 2
	ror	eax, 2
	ror	eax, 2
	ror	eax, 2
	ror	eax, 2
	ror	eax, 2
	ror	eax, 2
	ror	eax, 2
	ror	eax, 2
	ror	eax, 2
	ror	eax, 2
	ror	eax, 2
	ror	eax, 2
	ror	eax, 2
	ror	eax, 2
	ror	eax, 2
	ror	eax, 2
	ror	eax, 2
	ror	eax, 2
	ror	eax, 2
	ror	eax, 2
	ror	eax, 2
	ror	eax, 2
	ror	eax, 2
	ror	eax, 2
	ror	eax, 2
	ror	eax, 2
	ror	eax, 2
	ror	eax, 2
	ror	eax, 2
	ror	eax, 2
	ror	eax, 2
	ror	eax, 2
	ror	eax, 2
	ror	eax, 2
	ror	eax, 2
	ror	eax, 2
	ror	eax, 2
	ror	eax, 2
	ror	eax, 2
	ror	eax, 2
	ror	eax, 2
	ror	eax, 2
	ror	eax, 2
	ror	eax, 2
	ror	eax, 2
	ror	eax, 2
	ror	eax, 2
	ror	eax, 2
	ror	eax, 2
	ror	eax, 2
	ror	eax, 2
	ror	eax, 2
	ror	eax, 2
	ror	eax, 2
	ror	eax, 2
	ror	eax, 2
	ror	eax, 2
	ror	eax, 2
	ror	eax, 2
	ror	eax, 2
	ror	eax, 2
	ror	eax, 2
	ror	eax, 2
	ror	eax, 2
	ror	eax, 2
	ror	eax, 2
	ror	eax, 2
	ror	eax, 2
	ror	eax, 2
	ror	eax, 2
	ror	eax, 2
	ror	eax, 2
	ror	eax, 2
	ror	eax, 2
	ror	eax, 2
	ror	eax, 2
	ror	eax, 2
	ror	eax, 2
	ror	eax, 2
	ror	eax, 2
	ror	eax, 2
	ror	eax, 2
	ror	eax, 2
	ror	eax, 2
	ror	eax, 2
	ror	eax, 2
	ror	eax, 2
	ror	eax, 2
	ror	eax, 2
	ror	eax, 2
	ror	eax, 2
	ror	eax, 2
	ror	eax, 2
	ror	eax, 2
	ror	eax, 2
	ror	eax, 2
	ror	eax, 2
	ror	eax, 2
	ror	eax, 2
	ror	eax, 2
	ror	eax, 2
	ror	eax, 2
	ror	eax, 2
	ror	eax, 2
	ror	eax, 2
	ror	eax, 2
	ror	eax, 2
	ror	eax, 2
	ror	eax, 2
	ror	eax, 2
	ror	eax, 2
	ror	eax, 2
	ror	eax, 2
	ror	eax, 2
	ror	eax, 2
	ror	eax, 2
	ror	eax, 2
	ror	eax, 2
	ror	eax, 2
	ror	eax, 2
	ror	eax, 2
	ror	eax, 2
	ror	eax, 2
	ror	eax, 2
	ror	eax, 2
	ror	eax, 2
	ror	eax, 2
	ror	eax, 2
	ror	eax, 2
	ror	eax, 2
	ror	eax, 2
	ror	eax, 2
	ror	eax, 2
	ror	eax, 2
	ror	eax, 2
	ror	eax, 2
	ror	eax, 2
	ror	eax, 2
	ror	eax, 2
	ror	eax, 2
	ror	eax, 2
	ror	eax, 2
	ror	eax, 2
	ror	eax, 2
	ror	eax, 2
	ror	eax, 2
	ror	eax, 2
	ror	eax, 2
	ror	eax, 2
	ror	eax, 2
	ror	eax, 2
	ror	eax, 2
	ror	eax, 2
	ror	eax, 2
	ror	eax, 2
	ror	eax, 2
	ror	eax, 2
	ror	eax, 2
	ror	eax, 2
	ror	eax, 2
	ror	eax, 2
	ror	eax, 2
	ror	eax, 2
	ror	eax, 2
	ror	eax, 2
	ror	eax, 2
	ror	eax, 2
	ror	eax, 2
	ror	eax, 2
	ror	eax, 2
	ror	eax, 2
	ror	eax, 2
	ror	eax, 2
	ror	eax, 2
	ror	eax, 2
	ror	eax, 2
	ror	eax, 2
	ror	eax, 2
	ror	eax, 2
	ror	eax, 2
	ror	eax, 2
	ror	eax, 2
	ror	eax, 2
	ror	eax, 2
	ror	eax, 2
	ror	eax, 2
	ror	eax, 2
	ror	eax, 2
	ror	eax, 2
	ror	eax, 2
	ror	eax, 2
	ror	eax, 2
	ror	eax, 2
	ror	eax, 2
	ror	eax, 2
	ror	eax, 2
	ror	eax, 2
	ror	eax, 2
	ror	eax, 2
	ror	eax, 2
	ror	eax, 2
	ror	eax, 2
	ror	eax, 2
	ror	eax, 2
	ror	eax, 2
	ror	eax, 2
	ror	eax, 2
	ror	eax, 2
	ror	eax, 2
	ror	eax, 2
	ror	eax, 2
	ror	eax, 2
	ror	eax, 2
	ror	eax, 2
	ror	eax, 2
	ror	eax, 2
	ror	eax, 2
	ror	eax, 2
	ror	eax, 2
	ror	eax, 2
	ror	eax, 2
	ror	eax, 2
	ror	eax, 2
	ror	eax, 2
	ror	eax, 2
	ror	eax, 2
	ror	eax, 2
	ror	eax, 2
	ror	eax, 2
	ror	eax, 2
	ror	eax, 2
	ror	eax, 2
	ror	eax, 2
	ror	eax, 2
	ror	eax, 2
	ror	eax, 2
	ror	eax, 2
	ror	eax, 2
	ror	eax, 2
	ror	eax, 2
	ror	eax, 2
	ror	eax, 2
	ror	eax, 2
	ror	eax, 2
	ror	eax, 2
	ror	eax, 2
	ror	eax, 2
	ror	eax, 2
	ror	eax, 2
	ror	eax, 2
	ror	eax, 2
	ror	eax, 2
	ror	eax, 2
	ror	eax, 2
	ror	eax, 2
	ror	eax, 2
	ror	eax, 2
	ror	eax, 2
	ror	eax, 2
	ror	eax, 2
	ror	eax, 2
	ror	eax, 2
	ror	eax, 2
	ror	eax, 2
	ror	eax, 2
	ror	eax, 2
	ror	eax, 2
	ror	eax, 2
	ror	eax, 2
	ror	eax, 2
	ror	eax, 2
	ror	eax, 2
	ror	eax, 2
	ror	eax, 2
	ror	eax, 2
	ror	eax, 2
	ror	eax, 2
	ror	eax, 2
	ror	eax, 2
	ror	eax, 2
	ror	eax, 2
	ror	eax, 2
	ror	eax, 2
	ror	eax, 2
	ror	eax, 2
	ror	eax, 2
	ror	eax, 2
	ror	eax, 2
	ror	eax, 2
	ror	eax, 2
	ror	eax, 2
	ror	eax, 2
	ror	eax, 2
	ror	eax, 2
	ror	eax, 2
	ror	eax, 2
	ror	eax, 2
	ror	eax, 2
	ror	eax, 2
	ror	eax, 2
	ror	eax, 2
	ror	eax, 2
	ror	eax, 2
	ror	eax, 2
	ror	eax, 2
	ror	eax, 2
	ror	eax, 2
	ror	eax, 2
	ror	eax, 2
	ror	eax, 2
	ror	eax, 2
	ror	eax, 2
	ror	eax, 2
	ror	eax, 2
	ror	eax, 2
	ror	eax, 2
	ror	eax, 2
	ror	eax, 2
	ror	eax, 2
	ror	eax, 2
	ror	eax, 2
	ror	eax, 2
	ror	eax, 2
	ror	eax, 2
	ror	eax, 2
	ror	eax, 2
	ror	eax, 2
	ror	eax, 2
	ror	eax, 2
	ror	eax, 2
	ror	eax, 2
	ror	eax, 2
	ror	eax, 2
	ror	eax, 2
	ror	eax, 2
	ror	eax, 2
	ror	eax, 2
	ror	eax, 2
	ror	eax, 2
	ror	eax, 2
	ror	eax, 2
	ror	eax, 2
	ror	eax, 2
	ror	eax, 2
	ror	eax, 2
	ror	eax, 2
	ror	eax, 2
	ror	eax, 2
	ror	eax, 2
	ror	eax, 2
	ror	eax, 2
	ror	eax, 2
	ror	eax, 2
	ror	eax, 2
	ror	eax, 2
	ror	eax, 2
	ror	eax, 2
	ror	eax, 2
	ror	eax, 2
	ror	eax, 2
	ror	eax, 2
	ror	eax, 2
	ror	eax, 2
	ror	eax, 2
	ror	eax, 2
	ror	eax, 2
	ror	eax, 2
	ror	eax, 2
	ror	eax, 2
	ror	eax, 2
	ror	eax, 2
	ror	eax, 2
	ror	eax, 2
	ror	eax, 2
	ror	eax, 2
	ror	eax, 2
	ror	eax, 2
	ror	eax, 2
	ror	eax, 2
	ror	eax, 2
	ror	eax, 2
	ror	eax, 2
	ror	eax, 2
	ror	eax, 2
	ror	eax, 2
	ror	eax, 2
	ror	eax, 2
	ror	eax, 2
	ror	eax, 2
	ror	eax, 2
	ror	eax, 2
	ror	eax, 2
	ror	eax, 2
	ror	eax, 2
	ror	eax, 2
	ror	eax, 2
	ror	eax, 2
	ror	eax, 2
	ror	eax, 2
	ror	eax, 2
	ror	eax, 2
	ror	eax, 2
	ror	eax, 2
	ror	eax, 2
	ror	eax, 2
	ror	eax, 2
	ror	eax, 2
	ror	eax, 2
	ror	eax, 2
	ror	eax, 2
	ror	eax, 2
	ror	eax, 2
	ror	eax, 2
	ror	eax, 2
	ror	eax, 2
	ror	eax, 2
	ror	eax, 2
	ror	eax, 2
	ror	eax, 2
	ror	eax, 2
	ror	eax, 2
	ror	eax, 2
	ror	eax, 2
	ror	eax, 2
	ror	eax, 2
	ror	eax, 2
	ror	eax, 2
	ror	eax, 2
	ror	eax, 2
	ror	eax, 2
; ENDIF
; Line 5
	ret	0
win_rorl	ENDP
_TEXT	ENDS
END
